

HI-TECH Software PIC PRO Macro Assembler V9.83 build 10920 
                                                                                               Sun May 30 22:22:27 2021

HI-TECH Software Omniscient Code Generator (PRO mode) build 10920
     1                           	processor	16F684
     2                           	opt	pw 120
     3                           	opt	pm
     4                           	psect	idataBANK0,global,class=CODE,delta=2
     5                           	psect	idataCOMMON,global,class=CODE,delta=2
     6                           	psect	strings,global,class=STRING,delta=2
     7                           	psect	cinit,global,class=CODE,delta=2
     8                           	psect	bssCOMMON,global,class=COMMON,space=1,delta=1
     9                           	psect	dataCOMMON,global,class=COMMON,space=1,delta=1
    10                           	psect	bssBANK0,global,class=BANK0,space=1,delta=1
    11                           	psect	dataBANK0,global,class=BANK0,space=1,delta=1
    12                           	psect	clrtext,global,class=CODE,delta=2
    13                           	psect	cstackCOMMON,global,class=COMMON,space=1,delta=1
    14                           	psect	cstackBANK0,global,class=BANK0,space=1,delta=1
    15                           	psect	maintext,global,class=CODE,delta=2
    16                           	psect	text641,local,class=CODE,delta=2
    17                           	psect	swtext1,local,class=CONST,delta=2
    18                           	psect	swtext2,local,class=CONST,delta=2
    19                           	psect	swtext3,local,class=CONST,delta=2
    20                           	psect	swtext4,local,class=CONST,delta=2
    21                           	psect	text642,local,class=CODE,delta=2
    22                           	psect	text643,local,class=CODE,delta=2
    23                           	psect	text644,local,class=CODE,delta=2
    24                           	psect	text645,local,class=CODE,delta=2
    25                           	psect	swtext5,local,class=CONST,delta=2
    26                           	psect	text646,local,class=CODE,delta=2
    27                           	psect	swtext6,local,class=CONST,delta=2
    28                           	psect	text647,local,class=CODE,delta=2
    29                           	psect	swtext7,local,class=CONST,delta=2
    30                           	psect	swtext8,local,class=CONST,delta=2
    31                           	psect	text648,local,class=CODE,delta=2
    32                           	psect	text649,local,class=CODE,delta=2
    33                           	psect	text650,local,class=CODE,delta=2
    34                           	psect	text651,local,class=CODE,delta=2
    35                           	psect	text652,local,class=CODE,delta=2
    36                           	psect	text653,local,class=CODE,delta=2
    37                           	psect	text654,local,class=CODE,delta=2
    38                           	psect	text655,local,class=CODE,delta=2
    39                           	psect	swtext9,local,class=CONST,delta=2
    40                           	psect	text656,local,class=CODE,delta=2
    41                           	psect	text657,local,class=CODE,delta=2
    42                           	psect	text658,local,class=CODE,delta=2
    43                           	psect	text659,local,class=CODE,delta=2
    44                           	psect	text660,local,class=CODE,delta=2
    45                           	psect	intentry,global,class=CODE,delta=2
    46                           	psect	text661,local,class=CODE,delta=2
    47                           	psect	pa_nodes,global,class=CODE,delta=2
    48                           	dabs	1,0x7E,2
    49  000A                     
    50                           	psect	idataBANK0
    51  0000                     __pidataBANK0:	
    52                           
    53                           	psect	idataCOMMON
    54  0000                     __pidataCOMMON:	
    55                           
    56                           	psect	strings
    57  02BB                     __pstrings:	
    58  02BB                     stringtab:	
    59                           ;	global	stringdir,stringtab,__stringbase
    60                           
    61  02BB                     stringcode:	
    62                           ;	String table - string pointers are 1 byte each
    63                           
    64  02BB                     stringdir:	
    65  02BB  3002               	movlw	high stringdir
    66  02BC  008A               	movwf	10
    67  02BD  0804               	movf	4,w
    68  02BE  0A84               	incf	4,f
    69  02BF  0782               	addwf	2,f
    70  02C0                     __stringbase:	
    71  02C0  3400               	retlw	0
    72  02C1                     _ir_key_value:	
    73  02C1  34FB               	retlw	251
    74  02C2  3400               	retlw	0
    75  02C3  34B2               	retlw	178
    76  02C4  3405               	retlw	5
    77  02C5  34FF               	retlw	255
    78  02C6  3401               	retlw	1
    79  02C7  34F5               	retlw	245
    80  02C8  3402               	retlw	2
    81  02C9  34ED               	retlw	237
    82  02CA  3403               	retlw	3
    83  02CB  34F6               	retlw	246
    84  02CC  3404               	retlw	4
    85  02CD  34EA               	retlw	234
    86  02CE  3406               	retlw	6
    87  02CF  34BF               	retlw	191
    88  02D0  3407               	retlw	7
    89  02D1  34E1               	retlw	225
    90  02D2  3408               	retlw	8
    91  02D3  34E4               	retlw	228
    92  02D4  3409               	retlw	9
    93  02D5  34E2               	retlw	226
    94  02D6  340A               	retlw	10
    95  02D7  34E5               	retlw	229
    96  02D8  340B               	retlw	11
    97  02D9  34E0               	retlw	224
    98  02DA  340C               	retlw	12
    99  02DB  34F2               	retlw	242
   100  02DC  340D               	retlw	13
   101  02DD  34E8               	retlw	232
   102  02DE  340E               	retlw	14
   103  02DF  34B3               	retlw	179
   104  02E0  340F               	retlw	15
   105  02E1  34E6               	retlw	230
   106  02E2  3410               	retlw	16
   107  02E3  34F1               	retlw	241
   108  02E4  3411               	retlw	17
   109  02E5  34F0               	retlw	240
   110  02E6  3412               	retlw	18
   111  000B                     _INTCON	set	11
   112  001B                     _MSCON	set	27
   113  001E                     _P1AUX	set	30
   114  0019                     _P1BR1	set	25
   115  001A                     _P1CDTH	set	26
   116  0010                     _P1CDTL	set	16
   117  0016                     _P1CON	set	22
   118  0009                     _P1DDTH	set	9
   119  0008                     _P1DDTL	set	8
   120  0005                     _PORTA	set	5
   121  0012                     _T2CON0	set	18
   122  0001                     _TMR0	set	1
   123  0013                     _TMR2H	set	19
   124  0011                     _TMR2L	set	17
   125  005F                     _GIE	set	95
   126  005B                     _PAIE	set	91
   127  0058                     _PAIF	set	88
   128  005E                     _PEIE	set	94
   129  002B                     _RA3	set	43
   130  002C                     _RA4	set	44
   131  005D                     _T0IE	set	93
   132  005A                     _T0IF	set	90
   133  0061                     _TMR2IF	set	97
   134  0092                     _TMR2ON	set	146
   135  0081                     _OPTION	set	129
   136  008F                     _OSCCON	set	143
   137  0090                     _P1OE	set	144
   138  0099                     _P1POL	set	153
   139  0092                     _PR2H	set	146
   140  0091                     _PR2L	set	145
   141  009E                     _T2CON1	set	158
   142  0085                     _TRISA	set	133
   143  0095                     _WPUA	set	149
   144  04B3                     _IOCA3	set	1203
   145  0461                     _TMR2IE	set	1121
   146  042B                     _TRISA3	set	1067
   147                           
   148                           	psect	cinit
   149  0347                     start_initialization:	
   150  0347  3040               	movlw	low __pbssBANK0
   151                           
   152                           ; Clear objects allocated to COMMON
   153  0348  01FA               	clrf	__pbssCOMMON& (0+127)
   154                           
   155                           ; Clear objects allocated to BANK0
   156  0349  1383               	bcf	3,7	;select IRP bank0
   157  034A  0084               	movwf	4
   158  034B  3054               	movlw	low (__pbssBANK0+20)
   159  034C  23C3               	fcall	clear_ram
   160                           
   161                           ;initializer for _bitdata
   162  034D  3001               	movlw	1
   163  034E  00E1               	movwf	__pdataBANK0& (0+127)
   164                           
   165                           ;initializer for _power_off_mode_backup
   166  034F  30FF               	movlw	255
   167  0350  00E2               	movwf	(__pdataBANK0+1)& (0+127)
   168                           
   169                           ;initializer for _jump_led_rate
   170  0351  3064               	movlw	100
   171  0352  00F8               	movwf	__pdataCOMMON& (0+127)
   172                           
   173                           ;initializer for _set_time_mode_backup
   174  0353  30FF               	movlw	255
   175  0354  00F9               	movwf	(__pdataCOMMON+1)& (0+127)
   176  0355                     end_of_initialization:	
   177                           ;End of C runtime variable initialization code
   178                           
   179  0355  0183               	clrf	3
   180  0356  28EE               	ljmp	_main	;jump to C main() function
   181                           
   182                           	psect	bssCOMMON
   183  007A                     __pbssCOMMON:	
   184  007A                     _pwm_colour_value:	
   185  007A                     	ds	1
   186                           
   187                           	psect	dataCOMMON
   188  0078                     __pdataCOMMON:	
   189  0078                     _jump_led_rate:	
   190  0078                     	ds	1
   191  0079                     _set_time_mode_backup:	
   192  0079                     	ds	1
   193                           
   194                           	psect	bssBANK0
   195  0040                     __pbssBANK0:	
   196  0040                     _IRDataTimer:	
   197  0040                     	ds	4
   198  0044                     _auto_power_off_timer_H:	
   199  0044                     	ds	4
   200  0048                     _IRbitNum:	
   201  0048                     	ds	1
   202  0049                     _IRbitTime:	
   203  0049                     	ds	1
   204  004A                     _ReceiveFinish:	
   205  004A                     	ds	1
   206  004B                     _auto_power_off_timer_L:	
   207  004B                     	ds	1
   208  004C                     _ft_user_pwm_mode:	
   209  004C                     	ds	1
   210  004D                     _ft_user_set_mode:	
   211  004D                     	ds	1
   212  004E                     _key_release:	
   213  004E                     	ds	1
   214  004F                     _power_off_flag:	
   215  004F                     	ds	1
   216  0050                     _pwm_rate_value:	
   217  0050                     	ds	1
   218  0051                     _temp_mode:	
   219  0051                     	ds	1
   220  0052                     _time_15ms_cnt:	
   221  0052                     	ds	1
   222  0053                     _time_2s_cnt:	
   223  0053                     	ds	1
   224                           
   225                           	psect	dataBANK0
   226  0061                     __pdataBANK0:	
   227  0061                     _bitdata:	
   228  0061                     	ds	1
   229  0062                     _power_off_mode_backup:	
   230  0062                     	ds	1
   231                           
   232                           	psect	clrtext
   233  03C3                     clear_ram:	
   234                           ;	Called with FSR containing the base address, and
   235                           ;	W with the last address+1
   236                           
   237  03C3  0064               	clrwdt	;clear the watchdog before getting into this loop
   238  03C4                     clrloop:	
   239  03C4  0180               	clrf	0	;clear RAM location pointed to by FSR
   240  03C5  0A84               	incf	4,f	;increment pointer
   241  03C6  0604               	xorwf	4,w	;XOR with final address
   242  03C7  1903               	btfsc	3,2	;have we reached the end yet?
   243  03C8  3400               	retlw	0	;all done for this memory range, return
   244  03C9  0604               	xorwf	4,w	;XOR again to restore value
   245  03CA  2BC4               	goto	clrloop	;do the next byte
   246                           
   247                           	psect	cstackCOMMON
   248  0070                     __pcstackCOMMON:	
   249  0070                     ?_TIMER0_INITIAL:	
   250  0070                     ?_PA3_Level_Change_INITIAL:	
   251                           ; 0 bytes @ 0x0
   252                           
   253  0070                     ?_PWM1_INITIAL:	
   254                           ; 0 bytes @ 0x0
   255                           
   256  0070                     ?_PWM1_RATE_CHANGE:	
   257                           ; 0 bytes @ 0x0
   258                           
   259  0070                     ?_JUMP_MODE_CHANGE:	
   260                           ; 0 bytes @ 0x0
   261                           
   262  0070                     ?_MIX_MODE_CHANGE:	
   263                           ; 0 bytes @ 0x0
   264                           
   265  0070                     ?_SET_MODE_REFRESH:	
   266                           ; 0 bytes @ 0x0
   267                           
   268  0070                     ?_DelayMs:	
   269                           ; 0 bytes @ 0x0
   270                           
   271  0070                     ?_PWM_MODE_CHANGE:	
   272                           ; 0 bytes @ 0x0
   273                           
   274  0070                     ?_PWM_MODE_REFRESH:	
   275                           ; 0 bytes @ 0x0
   276                           
   277  0070                     ?_PWM1_RED:	
   278                           ; 0 bytes @ 0x0
   279                           
   280  0070                     ?_ISR:	
   281                           ; 0 bytes @ 0x0
   282                           
   283  0070                     ??_ISR:	
   284                           ; 0 bytes @ 0x0
   285                           
   286  0070                     ?_POWER_INITIAL:	
   287                           ; 0 bytes @ 0x0
   288                           
   289  0070                     ?_reset_led_status:	
   290                           ; 0 bytes @ 0x0
   291                           
   292  0070                     ?_main:	
   293                           ; 0 bytes @ 0x0
   294                           
   295  0070                     ?_PWM1_GREEN:	
   296                           ; 0 bytes @ 0x0
   297                           
   298  0070                     ?_PWM1_BLUE:	
   299                           ; 0 bytes @ 0x0
   300                           
   301  0070                     ?_PWM1_WHITE:	
   302                           ; 0 bytes @ 0x0
   303                           
   304  0070                     ?_DelayUs:	
   305                           ; 0 bytes @ 0x0
   306                           
   307                           
   308                           ; 0 bytes @ 0x0
   309  0070                     	ds	3
   310  0073                     ??_TIMER0_INITIAL:	
   311  0073                     ??_PA3_Level_Change_INITIAL:	
   312                           ; 0 bytes @ 0x3
   313                           
   314  0073                     ??_PWM1_INITIAL:	
   315                           ; 0 bytes @ 0x3
   316                           
   317  0073                     ??_PWM1_RATE_CHANGE:	
   318                           ; 0 bytes @ 0x3
   319                           
   320  0073                     ??_JUMP_MODE_CHANGE:	
   321                           ; 0 bytes @ 0x3
   322                           
   323  0073                     ??_PWM_MODE_CHANGE:	
   324                           ; 0 bytes @ 0x3
   325                           
   326  0073                     ??_PWM_MODE_REFRESH:	
   327                           ; 0 bytes @ 0x3
   328                           
   329  0073                     ??_PWM1_RED:	
   330                           ; 0 bytes @ 0x3
   331                           
   332  0073                     ??_POWER_INITIAL:	
   333                           ; 0 bytes @ 0x3
   334                           
   335  0073                     ??_reset_led_status:	
   336                           ; 0 bytes @ 0x3
   337                           
   338  0073                     ??_PWM1_GREEN:	
   339                           ; 0 bytes @ 0x3
   340                           
   341  0073                     ??_PWM1_BLUE:	
   342                           ; 0 bytes @ 0x3
   343                           
   344  0073                     ??_PWM1_WHITE:	
   345                           ; 0 bytes @ 0x3
   346                           
   347  0073                     ??_DelayUs:	
   348                           ; 0 bytes @ 0x3
   349                           
   350  0073                     ??___lmul:	
   351                           ; 0 bytes @ 0x3
   352                           
   353  0073                     ?___lbmod:	
   354                           ; 0 bytes @ 0x3
   355                           
   356  0073                     PWM1_RATE_CHANGE@pwm_value:	
   357                           ; 1 bytes @ 0x3
   358                           
   359  0073                     DelayUs@Time:	
   360                           ; 1 bytes @ 0x3
   361                           
   362  0073                     ___lbmod@divisor:	
   363                           ; 1 bytes @ 0x3
   364                           
   365  0073                     ___lmul@product:	
   366                           ; 1 bytes @ 0x3
   367                           
   368                           
   369                           ; 4 bytes @ 0x3
   370  0073                     	ds	1
   371  0074                     ??___lbmod:	
   372  0074                     DelayUs@a:	
   373                           ; 0 bytes @ 0x4
   374                           
   375                           
   376                           ; 1 bytes @ 0x4
   377  0074                     	ds	1
   378  0075                     ??_DelayMs:	
   379  0075                     DelayMs@Time:	
   380                           ; 0 bytes @ 0x5
   381                           
   382  0075                     ___lbmod@dividend:	
   383                           ; 1 bytes @ 0x5
   384                           
   385                           
   386                           ; 1 bytes @ 0x5
   387  0075                     	ds	1
   388  0076                     DelayMs@a:	
   389  0076                     ___lbmod@counter:	
   390                           ; 1 bytes @ 0x6
   391                           
   392                           
   393                           ; 1 bytes @ 0x6
   394  0076                     	ds	1
   395  0077                     DelayMs@b:	
   396  0077                     ___lbmod@rem:	
   397                           ; 1 bytes @ 0x7
   398                           
   399                           
   400                           ; 1 bytes @ 0x7
   401  0077                     	ds	1
   402  0078                     ??_MIX_MODE_CHANGE:	
   403  0078                     ??_SET_MODE_REFRESH:	
   404                           ; 0 bytes @ 0x8
   405                           
   406                           
   407                           	psect	cstackBANK0
   408  0054                     __pcstackBANK0:	
   409                           ; 0 bytes @ 0x8
   410                           
   411  0054                     ?___lmul:	
   412  0054                     ___lmul@multiplier:	
   413                           ; 4 bytes @ 0x0
   414                           
   415                           
   416                           ; 4 bytes @ 0x0
   417  0054                     	ds	4
   418  0058                     ___lmul@multiplicand:	
   419                           
   420                           ; 4 bytes @ 0x4
   421  0058                     	ds	4
   422  005C                     ??_main:	
   423                           
   424                           ; 0 bytes @ 0x8
   425  005C                     	ds	4
   426  0060                     main@i:	
   427                           
   428                           ; 1 bytes @ 0xC
   429  0060                     	ds	1
   430                           
   431                           	psect	maintext
   432  00EE                     __pmaintext:	
   433 ;;Data sizes: Strings 0, constant 38, data 4, bss 21, persistent 0 stack 0
   434 ;;Auto spaces:   Size  Autos    Used
   435 ;; COMMON          14      8      11
   436 ;; BANK0           48     13      35
   437 ;;
   438 ;; Pointer list with targets:
   439 ;; ?___lmul	unsigned long  size(1) Largest target is 0
   440 ;;
   441 ;;
   442 ;; Critical Paths under _main in COMMON
   443 ;;
   444 ;;   _main->_DelayMs
   445 ;;   _SET_MODE_REFRESH->_DelayMs
   446 ;;   _DelayMs->_DelayUs
   447 ;;   _MIX_MODE_CHANGE->___lbmod
   448 ;;
   449 ;; Critical Paths under _ISR in COMMON
   450 ;;
   451 ;;   None.
   452 ;;
   453 ;; Critical Paths under _main in BANK0
   454 ;;
   455 ;;   _SET_MODE_REFRESH->___lmul
   456 ;;
   457 ;; Critical Paths under _ISR in BANK0
   458 ;;
   459 ;;   None.
   460 ;;
   461 ;;Main: autosize = 0, tempsize = 4, incstack = 0, save=0
   462 ;;
   463 ;;
   464 ;;Call Graph Tables:
   465 ;;
   466 ;; ---------------------------------------------------------------------------------
   467 ;; (Depth) Function   	        Calls       Base Space   Used Autos Params    Refs
   468 ;; ---------------------------------------------------------------------------------
   469 ;; (0) _main                                                 5     5      0     791
   470 ;;                                              8 BANK0      5     5      0
   471 ;;                      _POWER_INITIAL
   472 ;;                     _TIMER0_INITIAL
   473 ;;           _PA3_Level_Change_INITIAL
   474 ;;                       _PWM1_INITIAL
   475 ;;                   _PWM1_RATE_CHANGE
   476 ;;                   _JUMP_MODE_CHANGE
   477 ;;                    _MIX_MODE_CHANGE
   478 ;;                   _SET_MODE_REFRESH
   479 ;;                            _DelayMs
   480 ;;                   _reset_led_status
   481 ;;                    _PWM_MODE_CHANGE
   482 ;;                   _PWM_MODE_REFRESH
   483 ;; ---------------------------------------------------------------------------------
   484 ;; (1) _SET_MODE_REFRESH                                     0     0      0     274
   485 ;;                             ___lmul
   486 ;;                            _DelayMs
   487 ;;                           _PWM1_RED
   488 ;;                         _PWM1_GREEN
   489 ;;                          _PWM1_BLUE
   490 ;;                         _PWM1_WHITE
   491 ;;                   _PWM_MODE_REFRESH
   492 ;; ---------------------------------------------------------------------------------
   493 ;; (1) _PWM_MODE_CHANGE                                      0     0      0       0
   494 ;;                   _PWM_MODE_REFRESH
   495 ;; ---------------------------------------------------------------------------------
   496 ;; (1) _DelayMs                                              3     3      0     138
   497 ;;                                              5 COMMON     3     3      0
   498 ;;                            _DelayUs
   499 ;; ---------------------------------------------------------------------------------
   500 ;; (2) _DelayUs                                              2     2      0      46
   501 ;;                                              3 COMMON     2     2      0
   502 ;; ---------------------------------------------------------------------------------
   503 ;; (1) _PWM_MODE_REFRESH                                     0     0      0       0
   504 ;;                   _reset_led_status
   505 ;;                           _PWM1_RED
   506 ;; ---------------------------------------------------------------------------------
   507 ;; (1) _MIX_MODE_CHANGE                                      0     0      0     159
   508 ;;                            ___lbmod
   509 ;; ---------------------------------------------------------------------------------
   510 ;; (1) _PWM1_RATE_CHANGE                                     1     1      0      90
   511 ;;                                              3 COMMON     1     1      0
   512 ;;                           _PWM1_RED
   513 ;;                         _PWM1_GREEN
   514 ;;                          _PWM1_BLUE
   515 ;;                         _PWM1_WHITE
   516 ;; ---------------------------------------------------------------------------------
   517 ;; (1) _PWM1_INITIAL                                         0     0      0       0
   518 ;;                           _PWM1_RED
   519 ;; ---------------------------------------------------------------------------------
   520 ;; (2) ___lmul                                              12     4      8     136
   521 ;;                                              3 COMMON     4     4      0
   522 ;;                                              0 BANK0      8     0      8
   523 ;; ---------------------------------------------------------------------------------
   524 ;; (2) ___lbmod                                              5     4      1     159
   525 ;;                                              3 COMMON     5     4      1
   526 ;; ---------------------------------------------------------------------------------
   527 ;; (2) _PWM1_WHITE                                           0     0      0       0
   528 ;; ---------------------------------------------------------------------------------
   529 ;; (2) _PWM1_BLUE                                            0     0      0       0
   530 ;; ---------------------------------------------------------------------------------
   531 ;; (2) _PWM1_GREEN                                           0     0      0       0
   532 ;; ---------------------------------------------------------------------------------
   533 ;; (2) _PWM1_RED                                             0     0      0       0
   534 ;; ---------------------------------------------------------------------------------
   535 ;; (1) _JUMP_MODE_CHANGE                                     0     0      0       0
   536 ;; ---------------------------------------------------------------------------------
   537 ;; (1) _PA3_Level_Change_INITIAL                             0     0      0       0
   538 ;; ---------------------------------------------------------------------------------
   539 ;; (1) _TIMER0_INITIAL                                       0     0      0       0
   540 ;; ---------------------------------------------------------------------------------
   541 ;; (2) _reset_led_status                                     0     0      0       0
   542 ;; ---------------------------------------------------------------------------------
   543 ;; (1) _POWER_INITIAL                                        0     0      0       0
   544 ;; ---------------------------------------------------------------------------------
   545 ;; Estimated maximum stack depth 2
   546 ;; ---------------------------------------------------------------------------------
   547 ;; (Depth) Function   	        Calls       Base Space   Used Autos Params    Refs
   548 ;; ---------------------------------------------------------------------------------
   549 ;; (4) _ISR                                                  3     3      0       0
   550 ;;                                              0 COMMON     3     3      0
   551 ;; ---------------------------------------------------------------------------------
   552 ;; Estimated maximum stack depth 4
   553 ;; ---------------------------------------------------------------------------------
   554 ;; Call Graph Graphs:
   555 ;; _main (ROOT)
   556 ;;   _POWER_INITIAL
   557 ;;   _TIMER0_INITIAL
   558 ;;   _PA3_Level_Change_INITIAL
   559 ;;   _PWM1_INITIAL
   560 ;;     _PWM1_RED
   561 ;;   _PWM1_RATE_CHANGE
   562 ;;     _PWM1_RED
   563 ;;     _PWM1_GREEN
   564 ;;     _PWM1_BLUE
   565 ;;     _PWM1_WHITE
   566 ;;   _JUMP_MODE_CHANGE
   567 ;;   _MIX_MODE_CHANGE
   568 ;;     ___lbmod
   569 ;;   _SET_MODE_REFRESH
   570 ;;     ___lmul
   571 ;;     _DelayMs
   572 ;;       _DelayUs
   573 ;;     _PWM1_RED
   574 ;;     _PWM1_GREEN
   575 ;;     _PWM1_BLUE
   576 ;;     _PWM1_WHITE
   577 ;;     _PWM_MODE_REFRESH
   578 ;;       _reset_led_status
   579 ;;       _PWM1_RED
   580 ;;   _DelayMs
   581 ;;     _DelayUs
   582 ;;   _reset_led_status
   583 ;;   _PWM_MODE_CHANGE
   584 ;;     _PWM_MODE_REFRESH
   585 ;;       _reset_led_status
   586 ;;       _PWM1_RED
   587 ;;   _PWM_MODE_REFRESH
   588 ;;     _reset_led_status
   589 ;;     _PWM1_RED
   590 ;;
   591 ;; _ISR (ROOT)
   592 ;;
   593 ;; Address spaces:
   594 ;;Name               Size   Autos  Total    Cost      Usage
   595 ;;SFR1                 0      0       0       2        0.0%
   596 ;;BITSFR1              0      0       0       2        0.0%
   597 ;;CODE                 0      0       0       0        0.0%
   598 ;;DATA                 0      0      31       3        0.0%
   599 ;;ABS                  0      0      2E       6        0.0%
   600 ;;NULL                 0      0       0       0        0.0%
   601 ;;STACK                0      0       3       2        0.0%
   602 ;;BANK0               30      D      23       5       72.9%
   603 ;;BITBANK0            30      0       0       4        0.0%
   604 ;;SFR0                 0      0       0       1        0.0%
   605 ;;BITSFR0              0      0       0       1        0.0%
   606 ;;COMMON               E      8       B       1       78.6%
   607 ;;BITCOMMON            E      0       0       0        0.0%
   608 ;;EEDATA              80      0       0       0        0.0%
   609                           
   610                           
   611 ;; *************** function _main *****************
   612 ;; Defined at:
   613 ;;		line 162 in file "TEST_FT62F21X_SLEEP.C"
   614 ;; Parameters:    Size  Location     Type
   615 ;;		None
   616 ;; Auto vars:     Size  Location     Type
   617 ;;  i               1   12[BANK0 ] unsigned char 
   618 ;; Return value:  Size  Location     Type
   619 ;;		None               void
   620 ;; Registers used:
   621 ;;		wreg, fsr0l, fsr0h, status,2, status,0, pclath, cstack
   622 ;; Tracked objects:
   623 ;;		On entry : 17F/0
   624 ;;		On exit  : 20/0
   625 ;;		Unchanged: 0/0
   626 ;; Data sizes:     COMMON   BANK0
   627 ;;      Params:         0       0
   628 ;;      Locals:         0       1
   629 ;;      Temps:          0       4
   630 ;;      Totals:         0       5
   631 ;;Total ram usage:        5 bytes
   632 ;; Hardware stack levels required when called:    4
   633 ;; This function calls:
   634 ;;		_POWER_INITIAL
   635 ;;		_TIMER0_INITIAL
   636 ;;		_PA3_Level_Change_INITIAL
   637 ;;		_PWM1_INITIAL
   638 ;;		_PWM1_RATE_CHANGE
   639 ;;		_JUMP_MODE_CHANGE
   640 ;;		_MIX_MODE_CHANGE
   641 ;;		_SET_MODE_REFRESH
   642 ;;		_DelayMs
   643 ;;		_reset_led_status
   644 ;;		_PWM_MODE_CHANGE
   645 ;;		_PWM_MODE_REFRESH
   646 ;; This function is called by:
   647 ;;		Startup code after reset
   648 ;; This function uses a non-reentrant model
   649 ;;
   650  00EE                     _main:	
   651                           
   652                           ;TEST_FT62F21X_SLEEP.C: 163: POWER_INITIAL();
   653                           
   654                           ; Regs used in _main: [wreg-fsr0h+status,2+status,0+pclath+cstack]
   655  00EE  2367               	fcall	_POWER_INITIAL
   656                           
   657                           ;TEST_FT62F21X_SLEEP.C: 164: TIMER0_INITIAL();
   658  00EF  23D3               	fcall	_TIMER0_INITIAL
   659                           
   660                           ;TEST_FT62F21X_SLEEP.C: 165: PA3_Level_Change_INITIAL();
   661  00F0  23BA               	fcall	_PA3_Level_Change_INITIAL
   662                           
   663                           ;TEST_FT62F21X_SLEEP.C: 166: PWM1_INITIAL();
   664  00F1  230B               	fcall	_PWM1_INITIAL
   665  00F2                     l5029:	
   666  00F2  0064               	clrwdt	;#
   667                           
   668                           ;TEST_FT62F21X_SLEEP.C: 172: if(power_off_flag == 0)
   669  00F3  1283               	bcf	3,5	;RP0=0, select bank0
   670  00F4  08CF               	movf	_power_off_flag,f
   671  00F5  1D03               	skipz
   672  00F6  2921               	goto	l5071
   673                           
   674                           ;TEST_FT62F21X_SLEEP.C: 173: {
   675                           ;TEST_FT62F21X_SLEEP.C: 174: if(ft_user_pwm_mode == 0)
   676  00F7  08CC               	movf	_ft_user_pwm_mode,f
   677  00F8  1D03               	skipz
   678  00F9  2901               	goto	l5043
   679                           
   680                           ;TEST_FT62F21X_SLEEP.C: 175: {
   681                           ;TEST_FT62F21X_SLEEP.C: 176: if(time_15ms_cnt > 150)
   682  00FA  3097               	movlw	151
   683  00FB  0252               	subwf	_time_15ms_cnt,w
   684  00FC  1C03               	skipc
   685  00FD  2901               	goto	l5043
   686                           
   687                           ;TEST_FT62F21X_SLEEP.C: 177: {
   688                           ;TEST_FT62F21X_SLEEP.C: 178: time_15ms_cnt = 0;
   689  00FE  01D2               	clrf	_time_15ms_cnt
   690                           
   691                           ;TEST_FT62F21X_SLEEP.C: 179: pwm_rate_value++;
   692  00FF  0AD0               	incf	_pwm_rate_value,f
   693                           
   694                           ;TEST_FT62F21X_SLEEP.C: 180: PWM1_RATE_CHANGE();
   695  0100  2220               	fcall	_PWM1_RATE_CHANGE
   696  0101                     l5043:	
   697                           
   698                           ;TEST_FT62F21X_SLEEP.C: 181: }
   699                           ;TEST_FT62F21X_SLEEP.C: 182: }
   700                           ;TEST_FT62F21X_SLEEP.C: 183: if(ft_user_pwm_mode == 5)
   701  0101  084C               	movf	_ft_user_pwm_mode,w
   702  0102  3A05               	xorlw	5
   703  0103  1D03               	skipz
   704  0104  2911               	goto	l5057
   705                           
   706                           ;TEST_FT62F21X_SLEEP.C: 184: {
   707                           ;TEST_FT62F21X_SLEEP.C: 185: if(time_15ms_cnt>200)
   708  0105  30C9               	movlw	201
   709  0106  0252               	subwf	_time_15ms_cnt,w
   710  0107  1C03               	skipc
   711  0108  2911               	goto	l5057
   712  0109  3065               	movlw	101
   713                           
   714                           ;TEST_FT62F21X_SLEEP.C: 186: {
   715                           ;TEST_FT62F21X_SLEEP.C: 187: time_2s_cnt++;
   716  010A  0AD3               	incf	_time_2s_cnt,f
   717                           
   718                           ;TEST_FT62F21X_SLEEP.C: 188: if(time_2s_cnt > 100)
   719  010B  0253               	subwf	_time_2s_cnt,w
   720  010C  1C03               	skipc
   721  010D  2910               	goto	l5055
   722                           
   723                           ;TEST_FT62F21X_SLEEP.C: 189: {
   724                           ;TEST_FT62F21X_SLEEP.C: 190: time_2s_cnt = 0;
   725  010E  01D3               	clrf	_time_2s_cnt
   726                           
   727                           ;TEST_FT62F21X_SLEEP.C: 191: JUMP_MODE_CHANGE();
   728  010F  22E7               	fcall	_JUMP_MODE_CHANGE
   729  0110                     l5055:	
   730                           
   731                           ;TEST_FT62F21X_SLEEP.C: 192: }
   732                           ;TEST_FT62F21X_SLEEP.C: 193: time_15ms_cnt = 0;
   733  0110  01D2               	clrf	_time_15ms_cnt
   734  0111                     l5057:	
   735                           
   736                           ;TEST_FT62F21X_SLEEP.C: 195: }
   737                           ;TEST_FT62F21X_SLEEP.C: 196: }
   738                           ;TEST_FT62F21X_SLEEP.C: 197: if(ft_user_pwm_mode == 0x0A)
   739  0111  084C               	movf	_ft_user_pwm_mode,w
   740  0112  3A0A               	xorlw	10
   741  0113  1D03               	skipz
   742  0114  2921               	goto	l5071
   743                           
   744                           ;TEST_FT62F21X_SLEEP.C: 198: {
   745                           ;TEST_FT62F21X_SLEEP.C: 199: if(time_15ms_cnt>200)
   746  0115  30C9               	movlw	201
   747  0116  0252               	subwf	_time_15ms_cnt,w
   748  0117  1C03               	skipc
   749  0118  2921               	goto	l5071
   750  0119  3065               	movlw	101
   751                           
   752                           ;TEST_FT62F21X_SLEEP.C: 200: {
   753                           ;TEST_FT62F21X_SLEEP.C: 201: time_2s_cnt++;
   754  011A  0AD3               	incf	_time_2s_cnt,f
   755                           
   756                           ;TEST_FT62F21X_SLEEP.C: 202: if(time_2s_cnt > 100)
   757  011B  0253               	subwf	_time_2s_cnt,w
   758  011C  1C03               	skipc
   759  011D  2920               	goto	l5069
   760                           
   761                           ;TEST_FT62F21X_SLEEP.C: 203: {
   762                           ;TEST_FT62F21X_SLEEP.C: 204: time_2s_cnt = 0;
   763  011E  01D3               	clrf	_time_2s_cnt
   764                           
   765                           ;TEST_FT62F21X_SLEEP.C: 205: MIX_MODE_CHANGE();
   766  011F  228A               	fcall	_MIX_MODE_CHANGE
   767  0120                     l5069:	
   768                           
   769                           ;TEST_FT62F21X_SLEEP.C: 206: }
   770                           ;TEST_FT62F21X_SLEEP.C: 207: time_15ms_cnt = 0;
   771  0120  01D2               	clrf	_time_15ms_cnt
   772  0121                     l5071:	
   773                           
   774                           ;TEST_FT62F21X_SLEEP.C: 209: }
   775                           ;TEST_FT62F21X_SLEEP.C: 210: }
   776                           ;TEST_FT62F21X_SLEEP.C: 211: }
   777                           ;TEST_FT62F21X_SLEEP.C: 213: if(auto_power_off_timer_H)
   778  0121  0847               	movf	_auto_power_off_timer_H+3,w
   779  0122  0446               	iorwf	_auto_power_off_timer_H+2,w
   780  0123  0445               	iorwf	_auto_power_off_timer_H+1,w
   781  0124  0444               	iorwf	_auto_power_off_timer_H,w
   782  0125  1903               	skipnz
   783  0126  2947               	goto	l5085
   784                           
   785                           ;TEST_FT62F21X_SLEEP.C: 214: {
   786                           ;TEST_FT62F21X_SLEEP.C: 215: if(auto_power_off_timer_L > 100)
   787  0127  3065               	movlw	101
   788  0128  024B               	subwf	_auto_power_off_timer_L,w
   789  0129  1C03               	skipc
   790  012A  2947               	goto	l5085
   791  012B  3001               	movlw	1
   792                           
   793                           ;TEST_FT62F21X_SLEEP.C: 216: {
   794                           ;TEST_FT62F21X_SLEEP.C: 217: auto_power_off_timer_L = 0;
   795  012C  01CB               	clrf	_auto_power_off_timer_L
   796                           
   797                           ;TEST_FT62F21X_SLEEP.C: 218: auto_power_off_timer_H--;
   798  012D  00DC               	movwf	??_main
   799  012E  01DD               	clrf	??_main+1
   800  012F  01DE               	clrf	??_main+2
   801  0130  01DF               	clrf	??_main+3
   802  0131  02C4               	subwf	_auto_power_off_timer_H,f
   803  0132  085D               	movf	??_main+1,w
   804  0133  1C03               	skipc
   805  0134  0F5D               	incfsz	??_main+1,w
   806  0135  02C5               	subwf	_auto_power_off_timer_H+1,f
   807  0136  085E               	movf	??_main+2,w
   808  0137  1C03               	skipc
   809  0138  0F5E               	incfsz	??_main+2,w
   810  0139  02C6               	subwf	_auto_power_off_timer_H+2,f
   811  013A  085F               	movf	??_main+3,w
   812  013B  1C03               	skipc
   813  013C  0F5F               	incfsz	??_main+3,w
   814  013D  02C7               	subwf	_auto_power_off_timer_H+3,f
   815                           
   816                           ;TEST_FT62F21X_SLEEP.C: 219: if(!auto_power_off_timer_H)
   817  013E  0847               	movf	_auto_power_off_timer_H+3,w
   818  013F  0446               	iorwf	_auto_power_off_timer_H+2,w
   819  0140  0445               	iorwf	_auto_power_off_timer_H+1,w
   820  0141  0444               	iorwf	_auto_power_off_timer_H,w
   821  0142  1D03               	skipz
   822  0143  2947               	goto	l5085
   823                           
   824                           ;TEST_FT62F21X_SLEEP.C: 220: {
   825                           ;TEST_FT62F21X_SLEEP.C: 221: ft_user_set_mode = 0x12;
   826  0144  3012               	movlw	18
   827  0145  00CD               	movwf	_ft_user_set_mode
   828                           
   829                           ;TEST_FT62F21X_SLEEP.C: 222: SET_MODE_REFRESH();
   830  0146  200D               	fcall	_SET_MODE_REFRESH
   831  0147                     l5085:	
   832                           
   833                           ;TEST_FT62F21X_SLEEP.C: 223: }
   834                           ;TEST_FT62F21X_SLEEP.C: 224: }
   835                           ;TEST_FT62F21X_SLEEP.C: 225: }
   836                           ;TEST_FT62F21X_SLEEP.C: 227: if(RA4)
   837  0147  1E05               	btfss	5,4
   838  0148  294B               	goto	l5089
   839                           
   840                           ;TEST_FT62F21X_SLEEP.C: 228: {
   841                           ;TEST_FT62F21X_SLEEP.C: 229: key_release = 0;
   842  0149  01CE               	clrf	_key_release
   843                           
   844                           ;TEST_FT62F21X_SLEEP.C: 230: }
   845  014A  295C               	goto	l5105
   846  014B                     l5089:	
   847                           
   848                           ;TEST_FT62F21X_SLEEP.C: 231: else
   849                           ;TEST_FT62F21X_SLEEP.C: 232: {
   850                           ;TEST_FT62F21X_SLEEP.C: 233: if(key_release == 0)
   851  014B  08CE               	movf	_key_release,f
   852  014C  1D03               	skipz
   853  014D  295A               	goto	l5103
   854                           
   855                           ;TEST_FT62F21X_SLEEP.C: 234: {
   856                           ;TEST_FT62F21X_SLEEP.C: 236: DelayMs(1);
   857  014E  3001               	movlw	1
   858  014F  2357               	fcall	_DelayMs
   859                           
   860                           ;TEST_FT62F21X_SLEEP.C: 237: if(!RA4)
   861  0150  1283               	bcf	3,5	;RP0=0, select bank0
   862  0151  1A05               	btfsc	5,4
   863  0152  295A               	goto	l5103
   864                           
   865                           ;TEST_FT62F21X_SLEEP.C: 238: {
   866                           ;TEST_FT62F21X_SLEEP.C: 239: DelayMs(1);
   867  0153  3001               	movlw	1
   868  0154  2357               	fcall	_DelayMs
   869                           
   870                           ;TEST_FT62F21X_SLEEP.C: 240: if(!RA4)
   871  0155  1283               	bcf	3,5	;RP0=0, select bank0
   872  0156  1A05               	btfsc	5,4
   873  0157  295A               	goto	l5103
   874                           
   875                           ;TEST_FT62F21X_SLEEP.C: 241: {
   876                           ;TEST_FT62F21X_SLEEP.C: 242: reset_led_status();
   877  0158  23FB               	fcall	_reset_led_status
   878                           
   879                           ;TEST_FT62F21X_SLEEP.C: 243: PWM_MODE_CHANGE();
   880  0159  2376               	fcall	_PWM_MODE_CHANGE
   881  015A                     l5103:	
   882                           
   883                           ;TEST_FT62F21X_SLEEP.C: 244: }
   884                           ;TEST_FT62F21X_SLEEP.C: 246: }
   885                           ;TEST_FT62F21X_SLEEP.C: 252: }
   886                           ;TEST_FT62F21X_SLEEP.C: 253: key_release = 1;
   887  015A  01CE               	clrf	_key_release
   888  015B  0ACE               	incf	_key_release,f
   889  015C                     l5105:	
   890                           
   891                           ;TEST_FT62F21X_SLEEP.C: 255: }
   892                           ;TEST_FT62F21X_SLEEP.C: 257: if(ReceiveFinish)
   893  015C  084A               	movf	_ReceiveFinish,w
   894  015D  1903               	btfsc	3,2
   895  015E  28F2               	goto	l5029
   896                           
   897                           ;TEST_FT62F21X_SLEEP.C: 258: {
   898                           ;TEST_FT62F21X_SLEEP.C: 259: unsigned char i;
   899                           ;TEST_FT62F21X_SLEEP.C: 261: ReceiveFinish = 0;
   900  015F  01CA               	clrf	_ReceiveFinish
   901                           
   902                           ;TEST_FT62F21X_SLEEP.C: 263: for(i = 0;i < 19;i++)
   903  0160  01E0               	clrf	main@i
   904  0161                     l5113:	
   905                           
   906                           ;TEST_FT62F21X_SLEEP.C: 264: {
   907                           ;TEST_FT62F21X_SLEEP.C: 265: if(ir_key_value[i*2] == IRDataTimer[3])
   908  0161  1003               	clrc
   909  0162  0D60               	rlf	main@i,w
   910  0163  3E01               	addlw	low (_ir_key_value-__stringbase)
   911  0164  0084               	movwf	4
   912  0165  22BB               	fcall	stringdir
   913  0166  0643               	xorwf	_IRDataTimer+3,w
   914  0167  1D03               	skipz
   915  0168  2988               	goto	l5133
   916                           
   917                           ;TEST_FT62F21X_SLEEP.C: 266: {
   918                           ;TEST_FT62F21X_SLEEP.C: 267: temp_mode = ir_key_value[i*2 + 1];
   919  0169  1003               	clrc
   920  016A  0D60               	rlf	main@i,w
   921  016B  3E02               	addlw	low ((_ir_key_value-__stringbase+1))
   922  016C  0084               	movwf	4
   923  016D  22BB               	fcall	stringdir
   924  016E  00D1               	movwf	_temp_mode
   925                           
   926                           ;TEST_FT62F21X_SLEEP.C: 268: if(temp_mode >= 0x0D && temp_mode <= 0x10)
   927  016F  300D               	movlw	13
   928  0170  0251               	subwf	_temp_mode,w
   929  0171  1C03               	skipc
   930  0172  2979               	goto	l754
   931  0173  3011               	movlw	17
   932  0174  0251               	subwf	_temp_mode,w
   933  0175  1803               	skipnc
   934  0176  2979               	goto	l754
   935                           
   936                           ;TEST_FT62F21X_SLEEP.C: 269: {
   937                           ;TEST_FT62F21X_SLEEP.C: 270: set_time_mode_backup = ft_user_pwm_mode;
   938  0177  084C               	movf	_ft_user_pwm_mode,w
   939  0178  00F9               	movwf	_set_time_mode_backup
   940  0179                     l754:	
   941                           
   942                           ;TEST_FT62F21X_SLEEP.C: 271: }
   943                           ;TEST_FT62F21X_SLEEP.C: 272: if(temp_mode < 0x0B)
   944  0179  300B               	movlw	11
   945  017A  0251               	subwf	_temp_mode,w
   946  017B  1803               	skipnc
   947  017C  2985               	goto	l5129
   948                           
   949                           ;TEST_FT62F21X_SLEEP.C: 273: {
   950                           ;TEST_FT62F21X_SLEEP.C: 274: if(ft_user_pwm_mode != temp_mode)
   951  017D  084C               	movf	_ft_user_pwm_mode,w
   952  017E  0651               	xorwf	_temp_mode,w
   953  017F  1903               	skipnz
   954  0180  2988               	goto	l5133
   955                           
   956                           ;TEST_FT62F21X_SLEEP.C: 275: {
   957                           ;TEST_FT62F21X_SLEEP.C: 276: ft_user_pwm_mode = temp_mode;
   958  0181  0851               	movf	_temp_mode,w
   959  0182  00CC               	movwf	_ft_user_pwm_mode
   960                           
   961                           ;TEST_FT62F21X_SLEEP.C: 277: PWM_MODE_REFRESH();
   962  0183  21DD               	fcall	_PWM_MODE_REFRESH
   963  0184  2988               	goto	l5133
   964  0185                     l5129:	
   965                           
   966                           ;TEST_FT62F21X_SLEEP.C: 280: else
   967                           ;TEST_FT62F21X_SLEEP.C: 281: {
   968                           ;TEST_FT62F21X_SLEEP.C: 282: ft_user_set_mode = temp_mode;
   969  0185  0851               	movf	_temp_mode,w
   970  0186  00CD               	movwf	_ft_user_set_mode
   971                           
   972                           ;TEST_FT62F21X_SLEEP.C: 283: SET_MODE_REFRESH();
   973  0187  200D               	fcall	_SET_MODE_REFRESH
   974  0188                     l5133:	
   975  0188  3013               	movlw	19
   976  0189  0AE0               	incf	main@i,f
   977  018A  0260               	subwf	main@i,w
   978  018B  1803               	btfsc	3,0
   979  018C  28F2               	goto	l5029
   980  018D  2961               	goto	l5113
   981  018E                     __end_of_main:	
   982                           
   983                           	psect	text641
   984  000D                     __ptext641:	
   985 ;; =============== function _main ends ============
   986                           
   987                           
   988 ;; *************** function _SET_MODE_REFRESH *****************
   989 ;; Defined at:
   990 ;;		line 509 in file "FT_62F21X_pwm.c"
   991 ;; Parameters:    Size  Location     Type
   992 ;;		None
   993 ;; Auto vars:     Size  Location     Type
   994 ;;		None
   995 ;; Return value:  Size  Location     Type
   996 ;;		None               void
   997 ;; Registers used:
   998 ;;		wreg, fsr0l, fsr0h, status,2, status,0, pclath, cstack
   999 ;; Tracked objects:
  1000 ;;		On entry : 20/0
  1001 ;;		On exit  : 20/0
  1002 ;;		Unchanged: 0/0
  1003 ;; Data sizes:     COMMON   BANK0
  1004 ;;      Params:         0       0
  1005 ;;      Locals:         0       0
  1006 ;;      Temps:          0       0
  1007 ;;      Totals:         0       0
  1008 ;;Total ram usage:        0 bytes
  1009 ;; Hardware stack levels used:    1
  1010 ;; Hardware stack levels required when called:    3
  1011 ;; This function calls:
  1012 ;;		___lmul
  1013 ;;		_DelayMs
  1014 ;;		_PWM1_RED
  1015 ;;		_PWM1_GREEN
  1016 ;;		_PWM1_BLUE
  1017 ;;		_PWM1_WHITE
  1018 ;;		_PWM_MODE_REFRESH
  1019 ;; This function is called by:
  1020 ;;		_main
  1021 ;; This function uses a non-reentrant model
  1022 ;;
  1023  000D                     _SET_MODE_REFRESH:	
  1024                           
  1025                           ;FT_62F21X_pwm.c: 510: if(power_off_flag == 1)
  1026                           
  1027                           ; Regs used in _SET_MODE_REFRESH: [wreg-fsr0h+status,2+status,0+pclath+cstack]
  1028  000D  0B4F               	decfsz	_power_off_flag,w
  1029  000E  28CF               	goto	l5009
  1030                           
  1031                           ;FT_62F21X_pwm.c: 511: {
  1032                           ;FT_62F21X_pwm.c: 512: if(ft_user_set_mode != 0x11)
  1033  000F  084D               	movf	_ft_user_set_mode,w
  1034  0010  3A11               	xorlw	17
  1035  0011  1D03               	btfss	3,2
  1036  0012  0008               	return
  1037  0013  28CF               	goto	l5009
  1038  0014                     l4869:	
  1039                           
  1040                           ;FT_62F21X_pwm.c: 521: if(jump_led_rate > 20)
  1041  0014  3015               	movlw	21
  1042  0015  0278               	subwf	_jump_led_rate,w
  1043  0016  1C03               	skipc
  1044  0017  281A               	goto	l4873
  1045                           
  1046                           ;FT_62F21X_pwm.c: 522: {
  1047                           ;FT_62F21X_pwm.c: 523: jump_led_rate = jump_led_rate - 20;
  1048  0018  30EC               	movlw	236
  1049  0019                     L8:	
  1050  0019  07F8               	addwf	_jump_led_rate,f
  1051  001A                     l4873:	
  1052                           
  1053                           ;FT_62F21X_pwm.c: 524: }
  1054                           ;FT_62F21X_pwm.c: 525: if(ft_user_pwm_mode != 0)
  1055  001A  084C               	movf	_ft_user_pwm_mode,w
  1056  001B  1903               	btfsc	3,2
  1057  001C  0008               	return
  1058                           
  1059                           ;FT_62F21X_pwm.c: 526: {
  1060                           ;FT_62F21X_pwm.c: 527: P1CDTL=jump_led_rate;
  1061  001D  0878               	movf	_jump_led_rate,w
  1062  001E  0090               	movwf	16	;volatile
  1063                           
  1064                           ;FT_62F21X_pwm.c: 528: P1DDTL=jump_led_rate;
  1065  001F  0878               	movf	_jump_led_rate,w
  1066  0020  0088               	movwf	8	;volatile
  1067  0021  0008               	return
  1068  0022                     l4877:	
  1069                           
  1070                           ;FT_62F21X_pwm.c: 534: if(jump_led_rate < 100)
  1071  0022  3064               	movlw	100
  1072  0023  0278               	subwf	_jump_led_rate,w
  1073  0024  1803               	skipnc
  1074  0025  281A               	goto	l4873
  1075                           
  1076                           ;FT_62F21X_pwm.c: 535: {
  1077                           ;FT_62F21X_pwm.c: 536: jump_led_rate = jump_led_rate + 20;
  1078  0026  3014               	movlw	20
  1079  0027  2819               	goto	L8
  1080  0028                     l1554:	
  1081                           ;FT_62F21X_pwm.c: 537: }
  1082                           ;FT_62F21X_pwm.c: 538: if(ft_user_pwm_mode != 0)
  1083                           
  1084  0028                     l4885:	
  1085                           
  1086                           ;FT_62F21X_pwm.c: 546: case 0x0E:
  1087                           ;FT_62F21X_pwm.c: 547: case 0x0F:
  1088                           ;FT_62F21X_pwm.c: 548: case 0x10:
  1089                           ;FT_62F21X_pwm.c: 549: auto_power_off_timer_H = (ft_user_set_mode - 0x0C);
  1090  0028  084D               	movf	_ft_user_set_mode,w
  1091  0029  3EF4               	addlw	244
  1092  002A  00C4               	movwf	_auto_power_off_timer_H
  1093  002B  30FF               	movlw	255
  1094  002C  1803               	skipnc
  1095  002D  3000               	movlw	0
  1096  002E  00C5               	movwf	_auto_power_off_timer_H+1
  1097  002F  01C6               	clrf	_auto_power_off_timer_H+2
  1098  0030  1BC5               	btfsc	_auto_power_off_timer_H+1,7
  1099  0031  03C6               	decf	_auto_power_off_timer_H+2,f
  1100  0032  0846               	movf	_auto_power_off_timer_H+2,w
  1101  0033  00C7               	movwf	_auto_power_off_timer_H+3
  1102                           
  1103                           ;FT_62F21X_pwm.c: 550: auto_power_off_timer_H = auto_power_off_timer_H*0x180000;
  1104  0034  3018               	movlw	24
  1105  0035  01D7               	clrf	?___lmul+3
  1106  0036  00D6               	movwf	?___lmul+2
  1107  0037  01D5               	clrf	?___lmul+1
  1108  0038  01D4               	clrf	?___lmul
  1109  0039  0847               	movf	_auto_power_off_timer_H+3,w
  1110  003A  00DB               	movwf	?___lmul+7
  1111  003B  0846               	movf	_auto_power_off_timer_H+2,w
  1112  003C  00DA               	movwf	?___lmul+6
  1113  003D  0845               	movf	_auto_power_off_timer_H+1,w
  1114  003E  00D9               	movwf	?___lmul+5
  1115  003F  0844               	movf	_auto_power_off_timer_H,w
  1116  0040  00D8               	movwf	?___lmul+4
  1117  0041  2257               	fcall	___lmul
  1118  0042  0857               	movf	?___lmul+3,w
  1119  0043  00C7               	movwf	_auto_power_off_timer_H+3
  1120  0044  0856               	movf	?___lmul+2,w
  1121  0045  00C6               	movwf	_auto_power_off_timer_H+2
  1122  0046  0855               	movf	?___lmul+1,w
  1123  0047  00C5               	movwf	_auto_power_off_timer_H+1
  1124  0048  0854               	movf	?___lmul,w
  1125  0049  00C4               	movwf	_auto_power_off_timer_H
  1126                           
  1127                           ;FT_62F21X_pwm.c: 551: P1OE=0B00000000;
  1128                           
  1129                           ;FT_62F21X_pwm.c: 552: P1BR1=0B00000000;
  1130                           
  1131                           ;FT_62F21X_pwm.c: 553: DelayMs(50);
  1132  004A  20E9               	fcall	PL4	;call to abstracted procedure
  1133  004B  2357               	fcall	_DelayMs
  1134                           
  1135                           ;FT_62F21X_pwm.c: 554: P1CDTL=100;
  1136                           
  1137                           ;FT_62F21X_pwm.c: 555: P1DDTL=100;
  1138                           
  1139                           ;FT_62F21X_pwm.c: 556: P1OE=0B10100000;
  1140                           
  1141                           ;FT_62F21X_pwm.c: 557: P1BR1=0B00001100;
  1142                           
  1143                           ;FT_62F21X_pwm.c: 558: DelayMs(50);
  1144  004C  20DE               	fcall	PL3	;call to abstracted procedure
  1145  004D  2357               	fcall	_DelayMs
  1146                           
  1147                           ;FT_62F21X_pwm.c: 559: P1OE=0B00000000;
  1148                           
  1149                           ;FT_62F21X_pwm.c: 560: P1BR1=0B00000000;
  1150                           
  1151                           ;FT_62F21X_pwm.c: 561: DelayMs(50);
  1152  004E  20E9               	fcall	PL4	;call to abstracted procedure
  1153  004F  2357               	fcall	_DelayMs
  1154                           
  1155                           ;FT_62F21X_pwm.c: 562: P1CDTL=100;
  1156                           
  1157                           ;FT_62F21X_pwm.c: 563: P1DDTL=100;
  1158                           
  1159                           ;FT_62F21X_pwm.c: 564: P1OE=0B10100000;
  1160                           
  1161                           ;FT_62F21X_pwm.c: 565: P1BR1=0B00001100;
  1162                           
  1163                           ;FT_62F21X_pwm.c: 566: DelayMs(50);
  1164  0050  20DE               	fcall	PL3	;call to abstracted procedure
  1165  0051  2357               	fcall	_DelayMs
  1166                           
  1167                           ;FT_62F21X_pwm.c: 567: P1OE=0B00000000;
  1168                           
  1169                           ;FT_62F21X_pwm.c: 568: P1BR1=0B00000000;
  1170                           
  1171                           ;FT_62F21X_pwm.c: 569: DelayMs(50);
  1172  0052  20E9               	fcall	PL4	;call to abstracted procedure
  1173  0053  2357               	fcall	_DelayMs
  1174                           
  1175                           ;FT_62F21X_pwm.c: 570: if(set_time_mode_backup == 0x00)
  1176  0054  08F9               	movf	_set_time_mode_backup,f
  1177  0055  1903               	btfsc	3,2
  1178  0056  2860               	goto	l4925
  1179  0057  2868               	goto	l4927
  1180  0058                     l4915:	
  1181                           
  1182                           ;FT_62F21X_pwm.c: 575: PWM1_RED();
  1183  0058  23B1               	fcall	_PWM1_RED
  1184                           
  1185                           ;FT_62F21X_pwm.c: 576: break;
  1186  0059  28B1               	goto	l4981
  1187  005A                     l4917:	
  1188                           
  1189                           ;FT_62F21X_pwm.c: 579: PWM1_GREEN();
  1190  005A  23A8               	fcall	_PWM1_GREEN
  1191                           
  1192                           ;FT_62F21X_pwm.c: 580: break;
  1193  005B  28B1               	goto	l4981
  1194  005C                     l4919:	
  1195                           
  1196                           ;FT_62F21X_pwm.c: 583: PWM1_BLUE();
  1197  005C  239F               	fcall	_PWM1_BLUE
  1198                           
  1199                           ;FT_62F21X_pwm.c: 584: break;
  1200  005D  28B1               	goto	l4981
  1201  005E                     l4921:	
  1202                           
  1203                           ;FT_62F21X_pwm.c: 587: PWM1_WHITE();
  1204  005E  2396               	fcall	_PWM1_WHITE
  1205                           
  1206                           ;FT_62F21X_pwm.c: 588: break;
  1207  005F  28B1               	goto	l4981
  1208  0060                     l4925:	
  1209                           
  1210                           ; Switch size 1, requested type "space"
  1211                           ; Number of cases is 4, Range of values is 0 to 3
  1212                           ; switch strategies available:
  1213                           ; Name         Instructions Cycles
  1214                           ; direct_byte           10     6 (fixed)
  1215                           ; simple_byte           13     7 (average)
  1216                           ; jumptable            260     6 (fixed)
  1217                           ; rangetable             8     6 (fixed)
  1218                           ; spacedrange           14     9 (fixed)
  1219                           ; locatedrange           4     3 (fixed)
  1220                           ;	Chosen strategy is direct_byte
  1221  0060  2252               	fcall	PL6	;call to abstracted procedure
  1222  0061  1803               	skipnc
  1223  0062  28B1               	goto	l4981
  1224  0063  3003               	movlw	high S5297
  1225  0064  008A               	movwf	10
  1226  0065  30E7               	movlw	low S5297
  1227  0066  0704               	addwf	4,w
  1228  0067  0082               	movwf	2
  1229  0068                     l4927:	
  1230                           
  1231                           ;FT_62F21X_pwm.c: 596: else if(set_time_mode_backup == 0x05)
  1232  0068  0879               	movf	_set_time_mode_backup,w
  1233  0069  3A05               	xorlw	5
  1234  006A  1903               	btfsc	3,2
  1235  006B  287B               	goto	l4949
  1236  006C  2883               	goto	l4951
  1237  006D                     l4931:	
  1238                           
  1239                           ;FT_62F21X_pwm.c: 602: P1OE=0B00000000;
  1240  006D  1683               	bsf	3,5	;RP0=1, select bank1
  1241  006E  0190               	clrf	16	;volatile
  1242  006F  288D               	goto	L11
  1243  0070                     l4935:	
  1244                           ;FT_62F21X_pwm.c: 605: break;
  1245                           
  1246                           ;FT_62F21X_pwm.c: 603: P1BR1=0B00001000;
  1247                           
  1248                           
  1249                           ;FT_62F21X_pwm.c: 609: P1OE=0B00100000;
  1250  0070  3020               	movlw	32
  1251  0071                     L2:	
  1252  0071  1683               	bsf	3,5	;RP0=1, select bank1
  1253  0072  0090               	movwf	16	;volatile
  1254                           
  1255                           ;FT_62F21X_pwm.c: 610: P1BR1=0B00000000;
  1256  0073  1283               	bcf	3,5	;RP0=0, select bank0
  1257  0074  0199               	clrf	25	;volatile
  1258                           
  1259                           ;FT_62F21X_pwm.c: 612: break;
  1260  0075  28B1               	goto	l4981
  1261  0076                     l4939:	
  1262                           
  1263                           ;FT_62F21X_pwm.c: 615: P1OE=0B10000000;
  1264  0076  3080               	movlw	128
  1265  0077  2871               	goto	L2
  1266  0078                     l4943:	
  1267                           
  1268                           ;FT_62F21X_pwm.c: 620: P1OE=0B00000000;
  1269  0078  1683               	bsf	3,5	;RP0=1, select bank1
  1270  0079  0190               	clrf	16	;volatile
  1271  007A  289A               	goto	L12
  1272  007B                     l4949:	
  1273                           ;FT_62F21X_pwm.c: 622: break;
  1274                           
  1275                           ;FT_62F21X_pwm.c: 621: P1BR1=0B00000100;
  1276                           
  1277                           
  1278                           ; Switch size 1, requested type "space"
  1279                           ; Number of cases is 4, Range of values is 0 to 3
  1280                           ; switch strategies available:
  1281                           ; Name         Instructions Cycles
  1282                           ; direct_byte           10     6 (fixed)
  1283                           ; simple_byte           13     7 (average)
  1284                           ; jumptable            260     6 (fixed)
  1285                           ; rangetable             8     6 (fixed)
  1286                           ; spacedrange           14     9 (fixed)
  1287                           ; locatedrange           4     3 (fixed)
  1288                           ;	Chosen strategy is direct_byte
  1289  007B  2252               	fcall	PL6	;call to abstracted procedure
  1290  007C  1803               	skipnc
  1291  007D  28B1               	goto	l4981
  1292  007E  3003               	movlw	high S5299
  1293  007F  008A               	movwf	10
  1294  0080  30EB               	movlw	low S5299
  1295  0081  0704               	addwf	4,w
  1296  0082  0082               	movwf	2
  1297  0083                     l4951:	
  1298                           
  1299                           ;FT_62F21X_pwm.c: 629: else if(set_time_mode_backup == 0x0A)
  1300  0083  0879               	movf	_set_time_mode_backup,w
  1301  0084  3A0A               	xorlw	10
  1302  0085  1903               	btfsc	3,2
  1303  0086  289E               	goto	l4973
  1304  0087  28A9               	goto	l4975
  1305  0088                     l4955:	
  1306                           
  1307                           ;FT_62F21X_pwm.c: 634: P1OE=0B00100000;
  1308  0088  3020               	movlw	32
  1309  0089  288B               	goto	L9
  1310  008A                     l4957:	
  1311                           ;FT_62F21X_pwm.c: 636: break;
  1312                           
  1313                           ;FT_62F21X_pwm.c: 635: P1BR1=0B00001000;
  1314                           
  1315                           
  1316                           ;FT_62F21X_pwm.c: 639: P1OE=0B10000000;
  1317  008A  3080               	movlw	128
  1318  008B                     L9:	
  1319  008B  1683               	bsf	3,5	;RP0=1, select bank1
  1320  008C  0090               	movwf	16	;volatile
  1321  008D                     L11:	
  1322                           
  1323                           ;FT_62F21X_pwm.c: 640: P1BR1=0B00001000;
  1324  008D  3008               	movlw	8
  1325  008E  289B               	goto	L7
  1326  008F                     l4959:	
  1327                           ;FT_62F21X_pwm.c: 642: break;
  1328                           
  1329                           
  1330                           ;FT_62F21X_pwm.c: 645: P1OE=0B00000000;
  1331  008F  1683               	bsf	3,5	;RP0=1, select bank1
  1332  0090  0190               	clrf	16	;volatile
  1333                           
  1334                           ;FT_62F21X_pwm.c: 646: P1BR1=0B00001100;
  1335  0091  300C               	movlw	12
  1336  0092  289B               	goto	L7
  1337  0093                     l4963:	
  1338                           ;FT_62F21X_pwm.c: 648: break;
  1339                           
  1340                           
  1341                           ;FT_62F21X_pwm.c: 651: P1OE=0B10100000;
  1342  0093  30A0               	movlw	160
  1343  0094  2871               	goto	L2
  1344  0095                     l4967:	
  1345                           
  1346                           ;FT_62F21X_pwm.c: 656: P1OE=0B00100000;
  1347  0095  3020               	movlw	32
  1348  0096  2898               	goto	L10
  1349  0097                     l4969:	
  1350                           ;FT_62F21X_pwm.c: 658: break;
  1351                           
  1352                           ;FT_62F21X_pwm.c: 657: P1BR1=0B00000100;
  1353                           
  1354                           
  1355                           ;FT_62F21X_pwm.c: 661: P1OE=0B10000000;
  1356  0097  3080               	movlw	128
  1357  0098                     L10:	
  1358  0098  1683               	bsf	3,5	;RP0=1, select bank1
  1359  0099  0090               	movwf	16	;volatile
  1360  009A                     L12:	
  1361                           
  1362                           ;FT_62F21X_pwm.c: 662: P1BR1=0B00000100;
  1363  009A  3004               	movlw	4
  1364  009B                     L7:	
  1365  009B  1283               	bcf	3,5	;RP0=0, select bank0
  1366  009C  0099               	movwf	25	;volatile
  1367                           
  1368                           ;FT_62F21X_pwm.c: 663: break;
  1369  009D  28B1               	goto	l4981
  1370  009E                     l4973:	
  1371  009E  087A               	movf	_pwm_colour_value,w
  1372                           
  1373                           ; Switch size 1, requested type "space"
  1374                           ; Number of cases is 6, Range of values is 0 to 5
  1375                           ; switch strategies available:
  1376                           ; Name         Instructions Cycles
  1377                           ; direct_byte           12     6 (fixed)
  1378                           ; simple_byte           19    10 (average)
  1379                           ; jumptable            260     6 (fixed)
  1380                           ; rangetable            10     6 (fixed)
  1381                           ; spacedrange           18     9 (fixed)
  1382                           ; locatedrange           6     3 (fixed)
  1383                           ;	Chosen strategy is direct_byte
  1384  009F  0084               	movwf	4
  1385  00A0  3006               	movlw	6
  1386  00A1  0204               	subwf	4,w
  1387  00A2  1803               	skipnc
  1388  00A3  28B1               	goto	l4981
  1389  00A4  3003               	movlw	high S5301
  1390  00A5  008A               	movwf	10
  1391  00A6  30DB               	movlw	low S5301
  1392  00A7  0704               	addwf	4,w
  1393  00A8  0082               	movwf	2
  1394  00A9                     l4975:	
  1395                           
  1396                           ;FT_62F21X_pwm.c: 670: else if(set_time_mode_backup != 0xff)
  1397  00A9  0879               	movf	_set_time_mode_backup,w
  1398  00AA  3AFF               	xorlw	255
  1399  00AB  1903               	skipnz
  1400  00AC  28B1               	goto	l4981
  1401                           
  1402                           ;FT_62F21X_pwm.c: 671: {
  1403                           ;FT_62F21X_pwm.c: 672: ft_user_pwm_mode = set_time_mode_backup;
  1404  00AD  0879               	movf	_set_time_mode_backup,w
  1405  00AE  1283               	bcf	3,5	;RP0=0, select bank0
  1406  00AF  00CC               	movwf	_ft_user_pwm_mode
  1407                           
  1408                           ;FT_62F21X_pwm.c: 673: PWM_MODE_REFRESH();
  1409  00B0  21DD               	fcall	_PWM_MODE_REFRESH
  1410  00B1                     l4981:	
  1411                           
  1412                           ;FT_62F21X_pwm.c: 674: }
  1413                           ;FT_62F21X_pwm.c: 675: power_off_mode_backup = ft_user_pwm_mode;
  1414  00B1  1283               	bcf	3,5	;RP0=0, select bank0
  1415  00B2  084C               	movf	_ft_user_pwm_mode,w
  1416  00B3  00E2               	movwf	_power_off_mode_backup
  1417                           
  1418                           ;FT_62F21X_pwm.c: 676: break;
  1419  00B4  0008               	return
  1420  00B5                     l4983:	
  1421  00B5  3064               	movlw	100
  1422                           
  1423                           ;FT_62F21X_pwm.c: 679: power_off_flag = 0;
  1424  00B6  01CF               	clrf	_power_off_flag
  1425                           
  1426                           ;FT_62F21X_pwm.c: 680: jump_led_rate = 100;
  1427  00B7  00F8               	movwf	_jump_led_rate
  1428                           
  1429                           ;FT_62F21X_pwm.c: 681: if(power_off_mode_backup < 0x0B)
  1430  00B8  300B               	movlw	11
  1431  00B9  0262               	subwf	_power_off_mode_backup,w
  1432  00BA  1803               	skipnc
  1433  00BB  28BF               	goto	l4993
  1434                           
  1435                           ;FT_62F21X_pwm.c: 682: {
  1436                           ;FT_62F21X_pwm.c: 683: ft_user_pwm_mode = power_off_mode_backup;
  1437  00BC  0862               	movf	_power_off_mode_backup,w
  1438  00BD  00CC               	movwf	_ft_user_pwm_mode
  1439                           
  1440                           ;FT_62F21X_pwm.c: 685: }
  1441  00BE  28C0               	goto	l4991
  1442  00BF                     l4993:	
  1443                           
  1444                           ;FT_62F21X_pwm.c: 686: else
  1445                           ;FT_62F21X_pwm.c: 687: {
  1446                           ;FT_62F21X_pwm.c: 688: ft_user_pwm_mode = 0;
  1447  00BF  01CC               	clrf	_ft_user_pwm_mode
  1448  00C0                     l4991:	
  1449                           
  1450                           ;FT_62F21X_pwm.c: 684: PWM_MODE_REFRESH();
  1451  00C0  21DD               	fcall	_PWM_MODE_REFRESH
  1452                           
  1453                           ;FT_62F21X_pwm.c: 690: }
  1454                           ;FT_62F21X_pwm.c: 691: power_off_mode_backup = 0xff;
  1455  00C1  30FF               	movlw	255
  1456  00C2  00E2               	movwf	_power_off_mode_backup
  1457                           
  1458                           ;FT_62F21X_pwm.c: 692: break;
  1459  00C3  0008               	return
  1460  00C4                     l4999:	
  1461                           
  1462                           ;FT_62F21X_pwm.c: 695: P1OE=0B00000000;
  1463  00C4  1683               	bsf	3,5	;RP0=1, select bank1
  1464  00C5  0190               	clrf	16	;volatile
  1465                           
  1466                           ;FT_62F21X_pwm.c: 696: P1BR1=0B00000000;
  1467  00C6  1283               	bcf	3,5	;RP0=0, select bank0
  1468  00C7  0199               	clrf	25	;volatile
  1469                           
  1470                           ;FT_62F21X_pwm.c: 697: power_off_flag = 1;
  1471  00C8  01CF               	clrf	_power_off_flag
  1472  00C9  0ACF               	incf	_power_off_flag,f
  1473                           
  1474                           ;FT_62F21X_pwm.c: 698: auto_power_off_timer_H = 0;
  1475  00CA  01C4               	clrf	_auto_power_off_timer_H
  1476  00CB  01C5               	clrf	_auto_power_off_timer_H+1
  1477  00CC  01C6               	clrf	_auto_power_off_timer_H+2
  1478  00CD  01C7               	clrf	_auto_power_off_timer_H+3
  1479  00CE  28B1               	goto	l4981
  1480  00CF                     l5009:	
  1481  00CF  084D               	movf	_ft_user_set_mode,w
  1482                           
  1483                           ; Switch size 1, requested type "space"
  1484                           ; Number of cases is 8, Range of values is 11 to 18
  1485                           ; switch strategies available:
  1486                           ; Name         Instructions Cycles
  1487                           ; direct_byte           17     9 (fixed)
  1488                           ; simple_byte           25    13 (average)
  1489                           ; jumptable            263     9 (fixed)
  1490                           ;	Chosen strategy is direct_byte
  1491  00D0  3EF5               	addlw	-11
  1492  00D1  1C03               	skipc
  1493  00D2  0008               	return
  1494  00D3  0084               	movwf	4
  1495  00D4  3008               	movlw	8
  1496  00D5  0204               	subwf	4,w
  1497  00D6  1803               	skipnc
  1498  00D7  0008               	return
  1499  00D8  3003               	movlw	high S5303
  1500  00D9  008A               	movwf	10
  1501  00DA  30CB               	movlw	low S5303
  1502  00DB  0704               	addwf	4,w
  1503  00DC  0082               	movwf	2
  1504  00DD  0008               	return
  1505  00DE                     __end_of_SET_MODE_REFRESH:	
  1506  00DE                     PL3:	
  1507  00DE  3064               	movlw	100
  1508  00DF  1283               	bcf	3,5	;RP0=0, select bank0
  1509  00E0  0090               	movwf	16	;volatile
  1510  00E1  0088               	movwf	8	;volatile
  1511  00E2  30A0               	movlw	160
  1512  00E3  1683               	bsf	3,5	;RP0=1, select bank1
  1513  00E4  0090               	movwf	16	;volatile
  1514  00E5  300C               	movlw	12
  1515  00E6  1283               	bcf	3,5	;RP0=0, select bank0
  1516  00E7  0099               	movwf	25	;volatile
  1517  00E8  3432               	retlw	50
  1518  00E9                     PL4:	
  1519  00E9  1683               	bsf	3,5	;RP0=1, select bank1
  1520  00EA  0190               	clrf	16	;volatile
  1521  00EB  1283               	bcf	3,5	;RP0=0, select bank0
  1522  00EC  0199               	clrf	25	;volatile
  1523  00ED  3432               	retlw	50
  1524                           
  1525                           	psect	swtext1
  1526  03E7                     __pswtext1:	
  1527  03E7                     S5297:	
  1528  03E7  2858               	ljmp	l4915
  1529  03E8  285A               	ljmp	l4917
  1530  03E9  285C               	ljmp	l4919
  1531  03EA  285E               	ljmp	l4921
  1532                           
  1533                           	psect	swtext2
  1534  03EB                     __pswtext2:	
  1535  03EB                     S5299:	
  1536  03EB  286D               	ljmp	l4931
  1537  03EC  2870               	ljmp	l4935
  1538  03ED  2876               	ljmp	l4939
  1539  03EE  2878               	ljmp	l4943
  1540                           
  1541                           	psect	swtext3
  1542  03DB                     __pswtext3:	
  1543  03DB                     S5301:	
  1544  03DB  2888               	ljmp	l4955
  1545  03DC  288A               	ljmp	l4957
  1546  03DD  288F               	ljmp	l4959
  1547  03DE  2893               	ljmp	l4963
  1548  03DF  2895               	ljmp	l4967
  1549  03E0  2897               	ljmp	l4969
  1550                           
  1551                           	psect	swtext4
  1552  03CB                     __pswtext4:	
  1553  03CB                     S5303:	
  1554  03CB  2814               	ljmp	l4869
  1555  03CC  2822               	ljmp	l4877
  1556  03CD  2828               	ljmp	l1554
  1557  03CE  2828               	ljmp	l4885
  1558  03CF  2828               	ljmp	l4885
  1559  03D0  2828               	ljmp	l4885
  1560  03D1  28B5               	ljmp	l4983
  1561  03D2  28C4               	ljmp	l4999
  1562                           
  1563                           	psect	text642
  1564  0376                     __ptext642:	
  1565 ;; =============== function _SET_MODE_REFRESH ends ============
  1566                           
  1567                           
  1568 ;; *************** function _PWM_MODE_CHANGE *****************
  1569 ;; Defined at:
  1570 ;;		line 297 in file "FT_62F21X_pwm.c"
  1571 ;; Parameters:    Size  Location     Type
  1572 ;;		None
  1573 ;; Auto vars:     Size  Location     Type
  1574 ;;		None
  1575 ;; Return value:  Size  Location     Type
  1576 ;;		None               void
  1577 ;; Registers used:
  1578 ;;		wreg, fsr0l, fsr0h, status,2, status,0, pclath, cstack
  1579 ;; Tracked objects:
  1580 ;;		On entry : 20/0
  1581 ;;		On exit  : 20/0
  1582 ;;		Unchanged: FFFDF/0
  1583 ;; Data sizes:     COMMON   BANK0
  1584 ;;      Params:         0       0
  1585 ;;      Locals:         0       0
  1586 ;;      Temps:          0       0
  1587 ;;      Totals:         0       0
  1588 ;;Total ram usage:        0 bytes
  1589 ;; Hardware stack levels used:    1
  1590 ;; Hardware stack levels required when called:    3
  1591 ;; This function calls:
  1592 ;;		_PWM_MODE_REFRESH
  1593 ;; This function is called by:
  1594 ;;		_main
  1595 ;; This function uses a non-reentrant model
  1596 ;;
  1597  0376                     _PWM_MODE_CHANGE:	
  1598                           
  1599                           ;FT_62F21X_pwm.c: 298: ft_user_pwm_mode++;
  1600                           
  1601                           ; Regs used in _PWM_MODE_CHANGE: [wreg-fsr0h+status,2+status,0+pclath+cstack]
  1602  0376  0ACC               	incf	_ft_user_pwm_mode,f
  1603                           
  1604                           ;FT_62F21X_pwm.c: 299: if(ft_user_pwm_mode == 6)
  1605  0377  084C               	movf	_ft_user_pwm_mode,w
  1606  0378  3A06               	xorlw	6
  1607  0379  1903               	btfsc	3,2
  1608                           
  1609                           ;FT_62F21X_pwm.c: 300: {
  1610                           ;FT_62F21X_pwm.c: 301: ft_user_pwm_mode = 0;
  1611  037A  01CC               	clrf	_ft_user_pwm_mode
  1612                           
  1613                           ;FT_62F21X_pwm.c: 302: }
  1614                           ;FT_62F21X_pwm.c: 303: if(ft_user_pwm_mode > 6)
  1615  037B  3007               	movlw	7
  1616  037C  024C               	subwf	_ft_user_pwm_mode,w
  1617  037D  1C03               	skipc
  1618  037E  2B81               	goto	l4405
  1619                           
  1620                           ;FT_62F21X_pwm.c: 304: {
  1621                           ;FT_62F21X_pwm.c: 305: ft_user_pwm_mode = 1;
  1622  037F  01CC               	clrf	_ft_user_pwm_mode
  1623  0380  0ACC               	incf	_ft_user_pwm_mode,f
  1624  0381                     l4405:	
  1625                           
  1626                           ;FT_62F21X_pwm.c: 306: }
  1627                           ;FT_62F21X_pwm.c: 307: PWM_MODE_REFRESH();
  1628  0381  29DD               	ljmp	l4309
  1629  0382                     __end_of_PWM_MODE_CHANGE:	
  1630                           
  1631                           	psect	text643
  1632  0357                     __ptext643:	
  1633 ;; =============== function _PWM_MODE_CHANGE ends ============
  1634                           
  1635                           
  1636 ;; *************** function _DelayMs *****************
  1637 ;; Defined at:
  1638 ;;		line 378 in file "FT_62F21X_pwm.c"
  1639 ;; Parameters:    Size  Location     Type
  1640 ;;  Time            1    wreg     unsigned char 
  1641 ;; Auto vars:     Size  Location     Type
  1642 ;;  Time            1    5[COMMON] unsigned char 
  1643 ;;  b               1    7[COMMON] unsigned char 
  1644 ;;  a               1    6[COMMON] unsigned char 
  1645 ;; Return value:  Size  Location     Type
  1646 ;;		None               void
  1647 ;; Registers used:
  1648 ;;		wreg, status,2, status,0, pclath, cstack
  1649 ;; Tracked objects:
  1650 ;;		On entry : 20/0
  1651 ;;		On exit  : 0/0
  1652 ;;		Unchanged: 0/0
  1653 ;; Data sizes:     COMMON   BANK0
  1654 ;;      Params:         0       0
  1655 ;;      Locals:         3       0
  1656 ;;      Temps:          0       0
  1657 ;;      Totals:         3       0
  1658 ;;Total ram usage:        3 bytes
  1659 ;; Hardware stack levels used:    1
  1660 ;; Hardware stack levels required when called:    2
  1661 ;; This function calls:
  1662 ;;		_DelayUs
  1663 ;; This function is called by:
  1664 ;;		_main
  1665 ;;		_SET_MODE_REFRESH
  1666 ;; This function uses a non-reentrant model
  1667 ;;
  1668  0357                     _DelayMs:	
  1669                           
  1670                           ; Regs used in _DelayMs: [wreg+status,2+status,0+pclath+cstack]
  1671                           ;DelayMs@Time stored from wreg
  1672  0357  00F5               	movwf	DelayMs@Time
  1673                           
  1674                           ;FT_62F21X_pwm.c: 379: unsigned char a,b;
  1675                           ;FT_62F21X_pwm.c: 380: for(a=0;a<Time;a++)
  1676  0358  01F6               	clrf	DelayMs@a
  1677  0359                     l4393:	
  1678  0359  0875               	movf	DelayMs@Time,w
  1679  035A  0276               	subwf	DelayMs@a,w
  1680  035B  1803               	btfsc	3,0
  1681  035C  0008               	return
  1682                           
  1683                           ;FT_62F21X_pwm.c: 381: {
  1684                           ;FT_62F21X_pwm.c: 382: for(b=0;b<5;b++)
  1685  035D  01F7               	clrf	DelayMs@b
  1686  035E                     l4385:	
  1687                           
  1688                           ;FT_62F21X_pwm.c: 383: {
  1689                           ;FT_62F21X_pwm.c: 384: DelayUs(98);
  1690  035E  3062               	movlw	98
  1691  035F  238D               	fcall	_DelayUs
  1692  0360  3005               	movlw	5
  1693  0361  0AF7               	incf	DelayMs@b,f
  1694  0362  0277               	subwf	DelayMs@b,w
  1695  0363  1C03               	skipc
  1696  0364  2B5E               	goto	l4385
  1697  0365  0AF6               	incf	DelayMs@a,f
  1698  0366  2B59               	goto	l4393
  1699  0367                     __end_of_DelayMs:	
  1700                           
  1701                           	psect	text644
  1702  038D                     __ptext644:	
  1703 ;; =============== function _DelayMs ends ============
  1704                           
  1705                           
  1706 ;; *************** function _DelayUs *****************
  1707 ;; Defined at:
  1708 ;;		line 364 in file "FT_62F21X_pwm.c"
  1709 ;; Parameters:    Size  Location     Type
  1710 ;;  Time            1    wreg     unsigned char 
  1711 ;; Auto vars:     Size  Location     Type
  1712 ;;  Time            1    3[COMMON] unsigned char 
  1713 ;;  a               1    4[COMMON] unsigned char 
  1714 ;; Return value:  Size  Location     Type
  1715 ;;		None               void
  1716 ;; Registers used:
  1717 ;;		wreg, status,2, status,0
  1718 ;; Tracked objects:
  1719 ;;		On entry : 0/0
  1720 ;;		On exit  : 0/0
  1721 ;;		Unchanged: 0/0
  1722 ;; Data sizes:     COMMON   BANK0
  1723 ;;      Params:         0       0
  1724 ;;      Locals:         2       0
  1725 ;;      Temps:          0       0
  1726 ;;      Totals:         2       0
  1727 ;;Total ram usage:        2 bytes
  1728 ;; Hardware stack levels used:    1
  1729 ;; Hardware stack levels required when called:    1
  1730 ;; This function calls:
  1731 ;;		Nothing
  1732 ;; This function is called by:
  1733 ;;		_DelayMs
  1734 ;; This function uses a non-reentrant model
  1735 ;;
  1736  038D                     _DelayUs:	
  1737                           
  1738                           ; Regs used in _DelayUs: [wreg+status,2+status,0]
  1739                           ;DelayUs@Time stored from wreg
  1740  038D  00F3               	movwf	DelayUs@Time
  1741                           
  1742                           ;FT_62F21X_pwm.c: 365: unsigned char a;
  1743                           ;FT_62F21X_pwm.c: 366: for(a=0;a<Time;a++)
  1744  038E  01F4               	clrf	DelayUs@a
  1745  038F                     l4375:	
  1746  038F  0873               	movf	DelayUs@Time,w
  1747  0390  0274               	subwf	DelayUs@a,w
  1748  0391  1803               	btfsc	3,0
  1749  0392  0008               	return
  1750                           
  1751                           ;FT_62F21X_pwm.c: 367: {
  1752                           ;FT_62F21X_pwm.c: 368: _nop();
  1753  0393  0000               	nop
  1754  0394  0AF4               	incf	DelayUs@a,f
  1755  0395  2B8F               	goto	l4375
  1756  0396                     __end_of_DelayUs:	
  1757                           
  1758                           	psect	text645
  1759  01DD                     __ptext645:	
  1760 ;; =============== function _DelayUs ends ============
  1761                           
  1762                           
  1763 ;; *************** function _PWM_MODE_REFRESH *****************
  1764 ;; Defined at:
  1765 ;;		line 410 in file "FT_62F21X_pwm.c"
  1766 ;; Parameters:    Size  Location     Type
  1767 ;;		None
  1768 ;; Auto vars:     Size  Location     Type
  1769 ;;		None
  1770 ;; Return value:  Size  Location     Type
  1771 ;;		None               void
  1772 ;; Registers used:
  1773 ;;		wreg, fsr0l, fsr0h, status,2, status,0, pclath, cstack
  1774 ;; Tracked objects:
  1775 ;;		On entry : 20/0
  1776 ;;		On exit  : 20/0
  1777 ;;		Unchanged: FFFDF/0
  1778 ;; Data sizes:     COMMON   BANK0
  1779 ;;      Params:         0       0
  1780 ;;      Locals:         0       0
  1781 ;;      Temps:          0       0
  1782 ;;      Totals:         0       0
  1783 ;;Total ram usage:        0 bytes
  1784 ;; Hardware stack levels used:    1
  1785 ;; Hardware stack levels required when called:    2
  1786 ;; This function calls:
  1787 ;;		_reset_led_status
  1788 ;;		_PWM1_RED
  1789 ;; This function is called by:
  1790 ;;		_main
  1791 ;;		_PWM_MODE_CHANGE
  1792 ;;		_SET_MODE_REFRESH
  1793 ;; This function uses a non-reentrant model
  1794 ;;
  1795  01DD                     _PWM_MODE_REFRESH:	
  1796  01DD                     l4309:	
  1797                           ; Regs used in _PWM_MODE_REFRESH: [wreg-fsr0h+status,2+status,0+pclath+cstack]
  1798                           
  1799                           
  1800                           ;FT_62F21X_pwm.c: 411: reset_led_status();
  1801  01DD  23FB               	fcall	_reset_led_status
  1802                           
  1803                           ;FT_62F21X_pwm.c: 413: if(ft_user_pwm_mode != 0)
  1804  01DE  084C               	movf	_ft_user_pwm_mode,w
  1805  01DF  1903               	btfsc	3,2
  1806  01E0  29E6               	goto	l4315
  1807                           
  1808                           ;FT_62F21X_pwm.c: 414: {
  1809                           ;FT_62F21X_pwm.c: 415: P1CDTL=jump_led_rate;
  1810  01E1  0878               	movf	_jump_led_rate,w
  1811  01E2  0090               	movwf	16	;volatile
  1812                           
  1813                           ;FT_62F21X_pwm.c: 416: P1DDTL=jump_led_rate;
  1814  01E3  0878               	movf	_jump_led_rate,w
  1815  01E4  0088               	movwf	8	;volatile
  1816                           
  1817                           ;FT_62F21X_pwm.c: 417: }
  1818  01E5  29E8               	goto	l4317
  1819  01E6                     l4315:	
  1820                           
  1821                           ;FT_62F21X_pwm.c: 418: else
  1822                           ;FT_62F21X_pwm.c: 419: {
  1823                           ;FT_62F21X_pwm.c: 420: P1CDTL=0;
  1824  01E6  0190               	clrf	16	;volatile
  1825                           
  1826                           ;FT_62F21X_pwm.c: 421: P1DDTL=0;
  1827  01E7  0188               	clrf	8	;volatile
  1828  01E8                     l4317:	
  1829                           
  1830                           ;FT_62F21X_pwm.c: 422: }
  1831                           ;FT_62F21X_pwm.c: 424: if(power_off_flag == 1)
  1832  01E8  0B4F               	decfsz	_power_off_flag,w
  1833  01E9  2A14               	goto	l4363
  1834  01EA  0008               	return
  1835  01EB                     l4321:	
  1836                           
  1837                           ;FT_62F21X_pwm.c: 432: pwm_rate_value = 0;
  1838  01EB  01D0               	clrf	_pwm_rate_value
  1839                           
  1840                           ;FT_62F21X_pwm.c: 433: pwm_colour_value = 0;
  1841  01EC  01FA               	clrf	_pwm_colour_value
  1842                           
  1843                           ;FT_62F21X_pwm.c: 434: PWM1_RED();
  1844  01ED  2BB1               	ljmp	l4161
  1845  01EE                     l4329:	
  1846                           
  1847                           ;FT_62F21X_pwm.c: 447: P1OE=0B00100000;
  1848  01EE  3020               	movlw	32
  1849  01EF                     L13:	
  1850  01EF  1683               	bsf	3,5	;RP0=1, select bank1
  1851  01F0  0090               	movwf	16	;volatile
  1852                           
  1853                           ;FT_62F21X_pwm.c: 448: P1BR1=0B00000000;
  1854  01F1  1283               	bcf	3,5	;RP0=0, select bank0
  1855  01F2  0199               	clrf	25	;volatile
  1856                           
  1857                           ;FT_62F21X_pwm.c: 450: break;
  1858  01F3  0008               	return
  1859  01F4                     l4333:	
  1860                           
  1861                           ;FT_62F21X_pwm.c: 453: P1OE=0B10000000;
  1862  01F4  3080               	movlw	128
  1863  01F5  29EF               	goto	L13
  1864  01F6                     l4337:	
  1865                           
  1866                           ;FT_62F21X_pwm.c: 458: P1OE=0B00000000;
  1867  01F6  1683               	bsf	3,5	;RP0=1, select bank1
  1868  01F7  0190               	clrf	16	;volatile
  1869                           
  1870                           ;FT_62F21X_pwm.c: 459: P1BR1=0B00000100;
  1871  01F8  3004               	movlw	4
  1872  01F9  1283               	bcf	3,5	;RP0=0, select bank0
  1873  01FA  0099               	movwf	25	;volatile
  1874                           
  1875                           ;FT_62F21X_pwm.c: 460: break;
  1876  01FB  0008               	return
  1877  01FC                     l4341:	
  1878                           
  1879                           ;FT_62F21X_pwm.c: 463: pwm_colour_value = 0;
  1880  01FC  01FA               	clrf	_pwm_colour_value
  1881  01FD                     l4325:	
  1882                           ;FT_62F21X_pwm.c: 436: break;
  1883                           
  1884                           
  1885                           ;FT_62F21X_pwm.c: 440: P1OE=0B00000000;
  1886  01FD  1683               	bsf	3,5	;RP0=1, select bank1
  1887  01FE  0190               	clrf	16	;volatile
  1888  01FF                     l4327:	
  1889                           
  1890                           ;FT_62F21X_pwm.c: 441: P1BR1=0B00001000;
  1891  01FF  3008               	movlw	8
  1892  0200  1283               	bcf	3,5	;RP0=0, select bank0
  1893  0201  0099               	movwf	25	;volatile
  1894                           
  1895                           ;FT_62F21X_pwm.c: 443: break;
  1896  0202  0008               	return
  1897  0203                     l4345:	
  1898                           ;FT_62F21X_pwm.c: 465: P1OE=0B00000000;
  1899                           
  1900                           
  1901                           ;FT_62F21X_pwm.c: 472: P1OE=0B00100000;
  1902  0203  3020               	movlw	32
  1903                           
  1904                           ;FT_62F21X_pwm.c: 473: P1BR1=0B00001000;
  1905                           
  1906                           ;FT_62F21X_pwm.c: 475: break;
  1907  0204  2AAF               	ljmp	PL2	;call to abstracted procedure
  1908  0205                     l4347:	
  1909                           
  1910                           ;FT_62F21X_pwm.c: 479: P1OE=0B10000000;
  1911  0205  3080               	movlw	128
  1912                           
  1913                           ;FT_62F21X_pwm.c: 480: P1BR1=0B00001000;
  1914                           
  1915                           ;FT_62F21X_pwm.c: 483: break;
  1916  0206  2AAF               	ljmp	PL2	;call to abstracted procedure
  1917  0207                     l4349:	
  1918                           
  1919                           ;FT_62F21X_pwm.c: 486: P1OE=0B00000000;
  1920  0207  1683               	bsf	3,5	;RP0=1, select bank1
  1921  0208  0190               	clrf	16	;volatile
  1922                           
  1923                           ;FT_62F21X_pwm.c: 487: P1BR1=0B00001100;
  1924  0209  300C               	movlw	12
  1925  020A  1283               	bcf	3,5	;RP0=0, select bank0
  1926  020B  0099               	movwf	25	;volatile
  1927                           
  1928                           ;FT_62F21X_pwm.c: 488: break;
  1929  020C  0008               	return
  1930  020D                     l4353:	
  1931                           
  1932                           ;FT_62F21X_pwm.c: 491: P1OE=0B10100000;
  1933  020D  30A0               	movlw	160
  1934                           
  1935                           ;FT_62F21X_pwm.c: 492: P1BR1=0B00001000;
  1936                           
  1937                           ;FT_62F21X_pwm.c: 493: break;
  1938  020E  2AAF               	ljmp	PL2	;call to abstracted procedure
  1939  020F                     l4355:	
  1940  020F  3020               	movlw	32
  1941                           
  1942                           ;FT_62F21X_pwm.c: 496: pwm_colour_value = 0;
  1943  0210  01FA               	clrf	_pwm_colour_value
  1944                           
  1945                           ;FT_62F21X_pwm.c: 497: P1OE=0B00100000;
  1946  0211  1683               	bsf	3,5	;RP0=1, select bank1
  1947  0212  0090               	movwf	16	;volatile
  1948  0213  29FF               	goto	l4327
  1949  0214                     l4363:	
  1950  0214  084C               	movf	_ft_user_pwm_mode,w
  1951                           
  1952                           ; Switch size 1, requested type "space"
  1953                           ; Number of cases is 11, Range of values is 0 to 10
  1954                           ; switch strategies available:
  1955                           ; Name         Instructions Cycles
  1956                           ; direct_byte           17     6 (fixed)
  1957                           ; simple_byte           34    18 (average)
  1958                           ; jumptable            260     6 (fixed)
  1959                           ; rangetable            15     6 (fixed)
  1960                           ; spacedrange           28     9 (fixed)
  1961                           ; locatedrange          11     3 (fixed)
  1962                           ;	Chosen strategy is direct_byte
  1963  0215  0084               	movwf	4
  1964  0216  300B               	movlw	11
  1965  0217  0204               	subwf	4,w
  1966  0218  1803               	skipnc
  1967  0219  0008               	return
  1968  021A  3003               	movlw	high S5305
  1969  021B  008A               	movwf	10
  1970  021C  3082               	movlw	low S5305
  1971  021D  0704               	addwf	4,w
  1972  021E  0082               	movwf	2
  1973  021F  0008               	return
  1974  0220                     __end_of_PWM_MODE_REFRESH:	
  1975                           
  1976                           	psect	swtext5
  1977  0382                     __pswtext5:	
  1978  0382                     S5305:	
  1979  0382  29EB               	ljmp	l4321
  1980  0383  29FD               	ljmp	l4325
  1981  0384  29EE               	ljmp	l4329
  1982  0385  29F4               	ljmp	l4333
  1983  0386  29F6               	ljmp	l4337
  1984  0387  29FC               	ljmp	l4341
  1985  0388  2A03               	ljmp	l4345
  1986  0389  2A05               	ljmp	l4347
  1987  038A  2A07               	ljmp	l4349
  1988  038B  2A0D               	ljmp	l4353
  1989  038C  2A0F               	ljmp	l4355
  1990                           
  1991                           	psect	text646
  1992  028A                     __ptext646:	
  1993 ;; =============== function _PWM_MODE_REFRESH ends ============
  1994                           
  1995                           
  1996 ;; *************** function _MIX_MODE_CHANGE *****************
  1997 ;; Defined at:
  1998 ;;		line 312 in file "FT_62F21X_pwm.c"
  1999 ;; Parameters:    Size  Location     Type
  2000 ;;		None
  2001 ;; Auto vars:     Size  Location     Type
  2002 ;;		None
  2003 ;; Return value:  Size  Location     Type
  2004 ;;		None               void
  2005 ;; Registers used:
  2006 ;;		wreg, fsr0l, fsr0h, status,2, status,0, pclath, cstack
  2007 ;; Tracked objects:
  2008 ;;		On entry : 20/0
  2009 ;;		On exit  : 20/0
  2010 ;;		Unchanged: FFFDF/0
  2011 ;; Data sizes:     COMMON   BANK0
  2012 ;;      Params:         0       0
  2013 ;;      Locals:         0       0
  2014 ;;      Temps:          0       0
  2015 ;;      Totals:         0       0
  2016 ;;Total ram usage:        0 bytes
  2017 ;; Hardware stack levels used:    1
  2018 ;; Hardware stack levels required when called:    2
  2019 ;; This function calls:
  2020 ;;		___lbmod
  2021 ;; This function is called by:
  2022 ;;		_main
  2023 ;; This function uses a non-reentrant model
  2024 ;;
  2025  028A                     _MIX_MODE_CHANGE:	
  2026  028A  3006               	movlw	6
  2027                           
  2028                           ;FT_62F21X_pwm.c: 313: pwm_colour_value++;
  2029                           
  2030                           ; Regs used in _MIX_MODE_CHANGE: [wreg-fsr0h+status,2+status,0+pclath+cstack]
  2031  028B  0AFA               	incf	_pwm_colour_value,f
  2032                           
  2033                           ;FT_62F21X_pwm.c: 314: pwm_colour_value = pwm_colour_value%6;
  2034  028C  00F3               	movwf	?___lbmod
  2035  028D  087A               	movf	_pwm_colour_value,w
  2036  028E  232B               	fcall	___lbmod
  2037  028F  00FA               	movwf	_pwm_colour_value
  2038                           
  2039                           ; Switch size 1, requested type "space"
  2040                           ; Number of cases is 6, Range of values is 0 to 5
  2041                           ; switch strategies available:
  2042                           ; Name         Instructions Cycles
  2043                           ; direct_byte           12     6 (fixed)
  2044                           ; simple_byte           19    10 (average)
  2045                           ; jumptable            260     6 (fixed)
  2046                           ; rangetable            10     6 (fixed)
  2047                           ; spacedrange           18     9 (fixed)
  2048                           ; locatedrange           6     3 (fixed)
  2049                           ;	Chosen strategy is direct_byte
  2050                           
  2051                           ;FT_62F21X_pwm.c: 316: switch(pwm_colour_value)
  2052  0290  0084               	movwf	4
  2053  0291  3006               	movlw	6
  2054  0292  0204               	subwf	4,w
  2055  0293  1803               	skipnc
  2056  0294  0008               	return
  2057  0295  3003               	movlw	high S5307
  2058  0296  008A               	movwf	10
  2059  0297  30E1               	movlw	low S5307
  2060  0298  0704               	addwf	4,w
  2061  0299  0082               	movwf	2
  2062  029A  0008               	return
  2063  029B                     l4285:	
  2064                           
  2065                           ;FT_62F21X_pwm.c: 319: P1OE=0B00100000;
  2066  029B  3020               	movlw	32
  2067                           
  2068                           ;FT_62F21X_pwm.c: 320: P1BR1=0B00001000;
  2069                           
  2070                           ;FT_62F21X_pwm.c: 321: break;
  2071  029C  2AAF               	ljmp	PL2	;call to abstracted procedure
  2072  029D                     l4287:	
  2073                           
  2074                           ;FT_62F21X_pwm.c: 324: P1OE=0B10000000;
  2075  029D  3080               	movlw	128
  2076                           
  2077                           ;FT_62F21X_pwm.c: 325: P1BR1=0B00001000;
  2078                           
  2079                           ;FT_62F21X_pwm.c: 327: break;
  2080  029E  2AAF               	ljmp	PL2	;call to abstracted procedure
  2081  029F                     l4289:	
  2082                           
  2083                           ;FT_62F21X_pwm.c: 330: P1OE=0B00000000;
  2084  029F  1683               	bsf	3,5	;RP0=1, select bank1
  2085  02A0  0190               	clrf	16	;volatile
  2086                           
  2087                           ;FT_62F21X_pwm.c: 331: P1BR1=0B00001100;
  2088  02A1  300C               	movlw	12
  2089  02A2  1283               	bcf	3,5	;RP0=0, select bank0
  2090  02A3  0099               	movwf	25	;volatile
  2091                           
  2092                           ;FT_62F21X_pwm.c: 333: break;
  2093  02A4  0008               	return
  2094  02A5                     l4293:	
  2095                           
  2096                           ;FT_62F21X_pwm.c: 336: P1OE=0B10100000;
  2097  02A5  30A0               	movlw	160
  2098  02A6  1683               	bsf	3,5	;RP0=1, select bank1
  2099  02A7  0090               	movwf	16	;volatile
  2100                           
  2101                           ;FT_62F21X_pwm.c: 337: P1BR1=0B00000000;
  2102  02A8  1283               	bcf	3,5	;RP0=0, select bank0
  2103  02A9  0199               	clrf	25	;volatile
  2104                           
  2105                           ;FT_62F21X_pwm.c: 338: break;
  2106  02AA  0008               	return
  2107  02AB                     l4297:	
  2108                           
  2109                           ;FT_62F21X_pwm.c: 341: P1OE=0B00100000;
  2110  02AB  3020               	movlw	32
  2111                           
  2112                           ;FT_62F21X_pwm.c: 342: P1BR1=0B00000100;
  2113                           
  2114                           ;FT_62F21X_pwm.c: 343: break;
  2115  02AC  2AB5               	ljmp	PL5	;call to abstracted procedure
  2116  02AD                     l4299:	
  2117                           
  2118                           ;FT_62F21X_pwm.c: 346: P1OE=0B10000000;
  2119  02AD  3080               	movlw	128
  2120                           
  2121                           ;FT_62F21X_pwm.c: 347: P1BR1=0B00000100;
  2122                           
  2123                           ;FT_62F21X_pwm.c: 348: break;
  2124  02AE  2AB5               	ljmp	PL5	;call to abstracted procedure
  2125  02AF                     __end_of_MIX_MODE_CHANGE:	
  2126  02AF                     PL2:	
  2127  02AF  1683               	bsf	3,5	;RP0=1, select bank1
  2128  02B0  0090               	movwf	16	;volatile
  2129  02B1  3008               	movlw	8
  2130  02B2  1283               	bcf	3,5	;RP0=0, select bank0
  2131  02B3  0099               	movwf	25	;volatile
  2132  02B4  0008               	return
  2133  02B5                     PL5:	
  2134  02B5  1683               	bsf	3,5	;RP0=1, select bank1
  2135  02B6  0090               	movwf	16	;volatile
  2136  02B7  3004               	movlw	4
  2137  02B8  1283               	bcf	3,5	;RP0=0, select bank0
  2138  02B9  0099               	movwf	25	;volatile
  2139  02BA  0008               	return
  2140                           
  2141                           	psect	swtext6
  2142  03E1                     __pswtext6:	
  2143  03E1                     S5307:	
  2144  03E1  2A9B               	ljmp	l4285
  2145  03E2  2A9D               	ljmp	l4287
  2146  03E3  2A9F               	ljmp	l4289
  2147  03E4  2AA5               	ljmp	l4293
  2148  03E5  2AAB               	ljmp	l4297
  2149  03E6  2AAD               	ljmp	l4299
  2150                           
  2151                           	psect	text647
  2152  0220                     __ptext647:	
  2153 ;; =============== function _MIX_MODE_CHANGE ends ============
  2154                           
  2155                           
  2156 ;; *************** function _PWM1_RATE_CHANGE *****************
  2157 ;; Defined at:
  2158 ;;		line 195 in file "FT_62F21X_pwm.c"
  2159 ;; Parameters:    Size  Location     Type
  2160 ;;		None
  2161 ;; Auto vars:     Size  Location     Type
  2162 ;;  pwm_value       1    3[COMMON] unsigned char 
  2163 ;; Return value:  Size  Location     Type
  2164 ;;		None               void
  2165 ;; Registers used:
  2166 ;;		wreg, fsr0l, fsr0h, status,2, status,0, pclath, cstack
  2167 ;; Tracked objects:
  2168 ;;		On entry : 20/0
  2169 ;;		On exit  : 20/0
  2170 ;;		Unchanged: FFFDF/0
  2171 ;; Data sizes:     COMMON   BANK0
  2172 ;;      Params:         0       0
  2173 ;;      Locals:         1       0
  2174 ;;      Temps:          0       0
  2175 ;;      Totals:         1       0
  2176 ;;Total ram usage:        1 bytes
  2177 ;; Hardware stack levels used:    1
  2178 ;; Hardware stack levels required when called:    2
  2179 ;; This function calls:
  2180 ;;		_PWM1_RED
  2181 ;;		_PWM1_GREEN
  2182 ;;		_PWM1_BLUE
  2183 ;;		_PWM1_WHITE
  2184 ;; This function is called by:
  2185 ;;		_main
  2186 ;; This function uses a non-reentrant model
  2187 ;;
  2188  0220                     _PWM1_RATE_CHANGE:	
  2189                           
  2190                           ;FT_62F21X_pwm.c: 196: unsigned char pwm_value;
  2191                           ;FT_62F21X_pwm.c: 198: if(pwm_rate_value >= 200)
  2192                           
  2193                           ; Regs used in _PWM1_RATE_CHANGE: [wreg-fsr0h+status,2+status,0+pclath+cstack]
  2194  0220  30C8               	movlw	200
  2195  0221  0250               	subwf	_pwm_rate_value,w
  2196  0222  1C03               	skipc
  2197  0223  2A39               	goto	l4255
  2198  0224  3003               	movlw	3
  2199                           
  2200                           ;FT_62F21X_pwm.c: 199: {
  2201                           ;FT_62F21X_pwm.c: 200: pwm_rate_value = 0;
  2202  0225  01D0               	clrf	_pwm_rate_value
  2203                           
  2204                           ;FT_62F21X_pwm.c: 201: pwm_colour_value++;
  2205  0226  0AFA               	incf	_pwm_colour_value,f
  2206                           
  2207                           ;FT_62F21X_pwm.c: 202: pwm_colour_value = pwm_colour_value%4;
  2208  0227  05FA               	andwf	_pwm_colour_value,f
  2209                           
  2210                           ;FT_62F21X_pwm.c: 203: switch(pwm_colour_value)
  2211  0228  2A31               	goto	l4253
  2212  0229                     l4243:	
  2213                           
  2214                           ;FT_62F21X_pwm.c: 206: PWM1_RED();
  2215  0229  23B1               	fcall	_PWM1_RED
  2216                           
  2217                           ;FT_62F21X_pwm.c: 207: break;
  2218  022A  2A39               	goto	l4255
  2219  022B                     l4245:	
  2220                           
  2221                           ;FT_62F21X_pwm.c: 210: PWM1_GREEN();
  2222  022B  23A8               	fcall	_PWM1_GREEN
  2223                           
  2224                           ;FT_62F21X_pwm.c: 211: break;
  2225  022C  2A39               	goto	l4255
  2226  022D                     l4247:	
  2227                           
  2228                           ;FT_62F21X_pwm.c: 214: PWM1_BLUE();
  2229  022D  239F               	fcall	_PWM1_BLUE
  2230                           
  2231                           ;FT_62F21X_pwm.c: 215: break;
  2232  022E  2A39               	goto	l4255
  2233  022F                     l4249:	
  2234                           
  2235                           ;FT_62F21X_pwm.c: 218: PWM1_WHITE();
  2236  022F  2396               	fcall	_PWM1_WHITE
  2237                           
  2238                           ;FT_62F21X_pwm.c: 219: break;
  2239  0230  2A39               	goto	l4255
  2240  0231                     l4253:	
  2241                           
  2242                           ; Switch size 1, requested type "space"
  2243                           ; Number of cases is 4, Range of values is 0 to 3
  2244                           ; switch strategies available:
  2245                           ; Name         Instructions Cycles
  2246                           ; direct_byte           10     6 (fixed)
  2247                           ; simple_byte           13     7 (average)
  2248                           ; jumptable            260     6 (fixed)
  2249                           ; rangetable             8     6 (fixed)
  2250                           ; spacedrange           14     9 (fixed)
  2251                           ; locatedrange           4     3 (fixed)
  2252                           ;	Chosen strategy is direct_byte
  2253  0231  2252               	fcall	PL6	;call to abstracted procedure
  2254  0232  1803               	skipnc
  2255  0233  2A39               	goto	l4255
  2256  0234  3003               	movlw	high S5309
  2257  0235  008A               	movwf	10
  2258  0236  30EF               	movlw	low S5309
  2259  0237  0704               	addwf	4,w
  2260  0238  0082               	movwf	2
  2261  0239                     l4255:	
  2262                           
  2263                           ;FT_62F21X_pwm.c: 225: }
  2264                           ;FT_62F21X_pwm.c: 226: if(pwm_rate_value <=100)
  2265  0239  3065               	movlw	101
  2266  023A  0250               	subwf	_pwm_rate_value,w
  2267                           
  2268                           ;FT_62F21X_pwm.c: 227: {
  2269                           ;FT_62F21X_pwm.c: 228: pwm_value = pwm_rate_value;
  2270  023B  0850               	movf	_pwm_rate_value,w
  2271  023C  1803               	skipnc
  2272                           
  2273                           ;FT_62F21X_pwm.c: 230: else
  2274                           ;FT_62F21X_pwm.c: 231: {
  2275                           ;FT_62F21X_pwm.c: 232: pwm_value = 200 - pwm_rate_value;
  2276                           
  2277                           ;FT_62F21X_pwm.c: 229: }
  2278  023D  3CC8               	sublw	200
  2279  023E  00F3               	movwf	PWM1_RATE_CHANGE@pwm_value
  2280  023F  2A46               	goto	l4271
  2281  0240                     l4261:	
  2282                           
  2283                           ;FT_62F21X_pwm.c: 238: P1CDTL = pwm_value;
  2284  0240  0873               	movf	PWM1_RATE_CHANGE@pwm_value,w
  2285  0241  0090               	movwf	16	;volatile
  2286                           
  2287                           ;FT_62F21X_pwm.c: 239: break;
  2288  0242  0008               	return
  2289  0243                     l4263:	
  2290                           
  2291                           ;FT_62F21X_pwm.c: 242: P1DDTL = pwm_value;
  2292  0243  0873               	movf	PWM1_RATE_CHANGE@pwm_value,w
  2293  0244  0088               	movwf	8	;volatile
  2294                           
  2295                           ;FT_62F21X_pwm.c: 243: break;
  2296  0245  0008               	return
  2297  0246                     l4271:	
  2298  0246  087A               	movf	_pwm_colour_value,w
  2299                           
  2300                           ; Switch size 1, requested type "space"
  2301                           ; Number of cases is 4, Range of values is 0 to 3
  2302                           ; switch strategies available:
  2303                           ; Name         Instructions Cycles
  2304                           ; direct_byte           10     6 (fixed)
  2305                           ; simple_byte           13     7 (average)
  2306                           ; jumptable            260     6 (fixed)
  2307                           ; rangetable             8     6 (fixed)
  2308                           ; spacedrange           14     9 (fixed)
  2309                           ; locatedrange           4     3 (fixed)
  2310                           ;	Chosen strategy is direct_byte
  2311  0247  0084               	movwf	4
  2312  0248  3004               	movlw	4
  2313  0249  0204               	subwf	4,w
  2314  024A  1803               	skipnc
  2315  024B  0008               	return
  2316  024C  3003               	movlw	high S5311
  2317  024D  008A               	movwf	10
  2318  024E  30F3               	movlw	low S5311
  2319  024F  0704               	addwf	4,w
  2320  0250  0082               	movwf	2
  2321  0251  0008               	return
  2322  0252                     __end_of_PWM1_RATE_CHANGE:	
  2323  0252                     PL6:	
  2324  0252  087A               	movf	_pwm_colour_value,w
  2325  0253  0084               	movwf	4
  2326  0254  3004               	movlw	4
  2327  0255  0204               	subwf	4,w
  2328  0256  0008               	return
  2329                           
  2330                           	psect	swtext7
  2331  03EF                     __pswtext7:	
  2332  03EF                     S5309:	
  2333  03EF  2A29               	ljmp	l4243
  2334  03F0  2A2B               	ljmp	l4245
  2335  03F1  2A2D               	ljmp	l4247
  2336  03F2  2A2F               	ljmp	l4249
  2337                           
  2338                           	psect	swtext8
  2339  03F3                     __pswtext8:	
  2340  03F3                     S5311:	
  2341  03F3  2A40               	ljmp	l4261
  2342  03F4  2A43               	ljmp	l4263
  2343  03F5  2A40               	ljmp	l4261
  2344  03F6  2A43               	ljmp	l4263
  2345                           
  2346                           	psect	text648
  2347  030B                     __ptext648:	
  2348 ;; =============== function _PWM1_RATE_CHANGE ends ============
  2349                           
  2350                           
  2351 ;; *************** function _PWM1_INITIAL *****************
  2352 ;; Defined at:
  2353 ;;		line 33 in file "FT_62F21X_pwm.c"
  2354 ;; Parameters:    Size  Location     Type
  2355 ;;		None
  2356 ;; Auto vars:     Size  Location     Type
  2357 ;;		None
  2358 ;; Return value:  Size  Location     Type
  2359 ;;		None               void
  2360 ;; Registers used:
  2361 ;;		wreg, status,2, status,0, pclath, cstack
  2362 ;; Tracked objects:
  2363 ;;		On entry : 17F/20
  2364 ;;		On exit  : 17F/0
  2365 ;;		Unchanged: FFE80/0
  2366 ;; Data sizes:     COMMON   BANK0
  2367 ;;      Params:         0       0
  2368 ;;      Locals:         0       0
  2369 ;;      Temps:          0       0
  2370 ;;      Totals:         0       0
  2371 ;;Total ram usage:        0 bytes
  2372 ;; Hardware stack levels used:    1
  2373 ;; Hardware stack levels required when called:    2
  2374 ;; This function calls:
  2375 ;;		_PWM1_RED
  2376 ;; This function is called by:
  2377 ;;		_main
  2378 ;; This function uses a non-reentrant model
  2379 ;;
  2380  030B                     _PWM1_INITIAL:	
  2381                           
  2382                           ;FT_62F21X_pwm.c: 34: T2CON0=0B00000001;
  2383                           
  2384                           ; Regs used in _PWM1_INITIAL: [wreg+status,2+status,0+pclath+cstack]
  2385  030B  3001               	movlw	1
  2386  030C  1283               	bcf	3,5	;RP0=0, select bank0
  2387  030D  0092               	movwf	18	;volatile
  2388                           
  2389                           ;FT_62F21X_pwm.c: 40: T2CON1=0B00000000;
  2390  030E  1683               	bsf	3,5	;RP0=1, select bank1
  2391  030F  019E               	clrf	30	;volatile
  2392                           
  2393                           ;FT_62F21X_pwm.c: 45: TMR2H=0;
  2394  0310  1283               	bcf	3,5	;RP0=0, select bank0
  2395  0311  0193               	clrf	19	;volatile
  2396                           
  2397                           ;FT_62F21X_pwm.c: 46: TMR2L=100;
  2398  0312  3064               	movlw	100
  2399  0313  0091               	movwf	17	;volatile
  2400                           
  2401                           ;FT_62F21X_pwm.c: 48: PR2H=0;
  2402  0314  1683               	bsf	3,5	;RP0=1, select bank1
  2403  0315  0192               	clrf	18	;volatile
  2404                           
  2405                           ;FT_62F21X_pwm.c: 49: PR2L=100;
  2406  0316  0091               	movwf	17	;volatile
  2407                           
  2408                           ;FT_62F21X_pwm.c: 51: P1CDTH=0;
  2409  0317  1283               	bcf	3,5	;RP0=0, select bank0
  2410  0318  019A               	clrf	26	;volatile
  2411                           
  2412                           ;FT_62F21X_pwm.c: 52: P1DDTH=0;
  2413  0319  0189               	clrf	9	;volatile
  2414                           
  2415                           ;FT_62F21X_pwm.c: 53: P1CDTL=0;
  2416  031A  0190               	clrf	16	;volatile
  2417                           
  2418                           ;FT_62F21X_pwm.c: 54: P1DDTL=0;
  2419  031B  0188               	clrf	8	;volatile
  2420                           
  2421                           ;FT_62F21X_pwm.c: 56: P1POL=0B00000000;
  2422  031C  1683               	bsf	3,5	;RP0=1, select bank1
  2423  031D  0199               	clrf	25	;volatile
  2424                           
  2425                           ;FT_62F21X_pwm.c: 63: P1CON=0B00000000;
  2426  031E  1283               	bcf	3,5	;RP0=0, select bank0
  2427  031F  0196               	clrf	22	;volatile
  2428                           
  2429                           ;FT_62F21X_pwm.c: 70: P1AUX=0B00000000;
  2430  0320  019E               	clrf	30	;volatile
  2431                           
  2432                           ;FT_62F21X_pwm.c: 78: PWM1_RED();
  2433  0321  23B1               	fcall	_PWM1_RED
  2434                           
  2435                           ;FT_62F21X_pwm.c: 79: pwm_colour_value = 0;
  2436  0322  01FA               	clrf	_pwm_colour_value
  2437                           
  2438                           ;FT_62F21X_pwm.c: 81: TMR2IF=0;
  2439  0323  108C               	bcf	12,1
  2440                           
  2441                           ;FT_62F21X_pwm.c: 82: TMR2IE=1;
  2442  0324  1683               	bsf	3,5	;RP0=1, select bank1
  2443  0325  148C               	bsf	12,1
  2444                           
  2445                           ;FT_62F21X_pwm.c: 83: TMR2ON=1;
  2446  0326  1283               	bcf	3,5	;RP0=0, select bank0
  2447  0327  1512               	bsf	18,2
  2448                           
  2449                           ;FT_62F21X_pwm.c: 84: PEIE=1;
  2450  0328  170B               	bsf	11,6
  2451                           
  2452                           ;FT_62F21X_pwm.c: 85: GIE=1;
  2453  0329  178B               	bsf	11,7
  2454  032A  0008               	return
  2455  032B                     __end_of_PWM1_INITIAL:	
  2456                           
  2457                           	psect	text649
  2458  0257                     __ptext649:	
  2459 ;; =============== function _PWM1_INITIAL ends ============
  2460                           
  2461                           
  2462 ;; *************** function ___lmul *****************
  2463 ;; Defined at:
  2464 ;;		line 3 in file "c:\program files (x86)\fmd\fmdide\data\sources\lmul.c"
  2465 ;; Parameters:    Size  Location     Type
  2466 ;;  multiplier      4    0[BANK0 ] unsigned long 
  2467 ;;  multiplicand    4    4[BANK0 ] unsigned long 
  2468 ;; Auto vars:     Size  Location     Type
  2469 ;;  product         4    3[COMMON] unsigned long 
  2470 ;; Return value:  Size  Location     Type
  2471 ;;                  4    0[BANK0 ] unsigned long 
  2472 ;; Registers used:
  2473 ;;		wreg, status,2, status,0
  2474 ;; Tracked objects:
  2475 ;;		On entry : 20/0
  2476 ;;		On exit  : 20/0
  2477 ;;		Unchanged: FFFDF/0
  2478 ;; Data sizes:     COMMON   BANK0
  2479 ;;      Params:         0       8
  2480 ;;      Locals:         4       0
  2481 ;;      Temps:          0       0
  2482 ;;      Totals:         4       8
  2483 ;;Total ram usage:       12 bytes
  2484 ;; Hardware stack levels used:    1
  2485 ;; Hardware stack levels required when called:    1
  2486 ;; This function calls:
  2487 ;;		Nothing
  2488 ;; This function is called by:
  2489 ;;		_SET_MODE_REFRESH
  2490 ;; This function uses a non-reentrant model
  2491 ;;
  2492  0257                     ___lmul:	
  2493                           
  2494                           ; Regs used in ___lmul: [wreg+status,2+status,0]
  2495  0257  01F3               	clrf	___lmul@product
  2496  0258  01F4               	clrf	___lmul@product+1
  2497  0259  01F5               	clrf	___lmul@product+2
  2498  025A  01F6               	clrf	___lmul@product+3
  2499  025B                     l2902:	
  2500  025B  1C54               	btfss	___lmul@multiplier,0
  2501  025C  2A71               	goto	l4855
  2502  025D  0858               	movf	___lmul@multiplicand,w
  2503  025E  07F3               	addwf	___lmul@product,f
  2504  025F  0859               	movf	___lmul@multiplicand+1,w
  2505  0260  1103               	clrz
  2506  0261  1803               	skipnc
  2507  0262  3E01               	addlw	1
  2508  0263  1D03               	btfss	3,2
  2509  0264  07F4               	addwf	___lmul@product+1,f
  2510  0265  085A               	movf	___lmul@multiplicand+2,w
  2511  0266  1103               	clrz
  2512  0267  1803               	skipnc
  2513  0268  3E01               	addlw	1
  2514  0269  1D03               	btfss	3,2
  2515  026A  07F5               	addwf	___lmul@product+2,f
  2516  026B  085B               	movf	___lmul@multiplicand+3,w
  2517  026C  1103               	clrz
  2518  026D  1803               	skipnc
  2519  026E  3E01               	addlw	1
  2520  026F  1D03               	btfss	3,2
  2521  0270  07F6               	addwf	___lmul@product+3,f
  2522  0271                     l4855:	
  2523  0271  1003               	clrc
  2524  0272  0DD8               	rlf	___lmul@multiplicand,f
  2525  0273  0DD9               	rlf	___lmul@multiplicand+1,f
  2526  0274  0DDA               	rlf	___lmul@multiplicand+2,f
  2527  0275  0DDB               	rlf	___lmul@multiplicand+3,f
  2528  0276  1003               	clrc
  2529  0277  0CD7               	rrf	___lmul@multiplier+3,f
  2530  0278  0CD6               	rrf	___lmul@multiplier+2,f
  2531  0279  0CD5               	rrf	___lmul@multiplier+1,f
  2532  027A  0CD4               	rrf	___lmul@multiplier,f
  2533  027B  0857               	movf	___lmul@multiplier+3,w
  2534  027C  0456               	iorwf	___lmul@multiplier+2,w
  2535  027D  0455               	iorwf	___lmul@multiplier+1,w
  2536  027E  0454               	iorwf	___lmul@multiplier,w
  2537  027F  1D03               	skipz
  2538  0280  2A5B               	goto	l2902
  2539  0281  0876               	movf	___lmul@product+3,w
  2540  0282  00D7               	movwf	?___lmul+3
  2541  0283  0875               	movf	___lmul@product+2,w
  2542  0284  00D6               	movwf	?___lmul+2
  2543  0285  0874               	movf	___lmul@product+1,w
  2544  0286  00D5               	movwf	?___lmul+1
  2545  0287  0873               	movf	___lmul@product,w
  2546  0288  00D4               	movwf	?___lmul
  2547  0289  0008               	return
  2548  028A                     __end_of___lmul:	
  2549                           
  2550                           	psect	text650
  2551  032B                     __ptext650:	
  2552 ;; =============== function ___lmul ends ============
  2553                           
  2554                           
  2555 ;; *************** function ___lbmod *****************
  2556 ;; Defined at:
  2557 ;;		line 5 in file "c:\program files (x86)\fmd\fmdide\data\sources\lbmod.c"
  2558 ;; Parameters:    Size  Location     Type
  2559 ;;  dividend        1    wreg     unsigned char 
  2560 ;;  divisor         1    3[COMMON] unsigned char 
  2561 ;; Auto vars:     Size  Location     Type
  2562 ;;  dividend        1    5[COMMON] unsigned char 
  2563 ;;  rem             1    7[COMMON] unsigned char 
  2564 ;;  counter         1    6[COMMON] unsigned char 
  2565 ;; Return value:  Size  Location     Type
  2566 ;;                  1    wreg      unsigned char 
  2567 ;; Registers used:
  2568 ;;		wreg, status,2, status,0
  2569 ;; Tracked objects:
  2570 ;;		On entry : 20/0
  2571 ;;		On exit  : 20/0
  2572 ;;		Unchanged: FFFDF/0
  2573 ;; Data sizes:     COMMON   BANK0
  2574 ;;      Params:         1       0
  2575 ;;      Locals:         3       0
  2576 ;;      Temps:          1       0
  2577 ;;      Totals:         5       0
  2578 ;;Total ram usage:        5 bytes
  2579 ;; Hardware stack levels used:    1
  2580 ;; Hardware stack levels required when called:    1
  2581 ;; This function calls:
  2582 ;;		Nothing
  2583 ;; This function is called by:
  2584 ;;		_MIX_MODE_CHANGE
  2585 ;; This function uses a non-reentrant model
  2586 ;;
  2587  032B                     ___lbmod:	
  2588                           
  2589                           ; Regs used in ___lbmod: [wreg+status,2+status,0]
  2590                           ;___lbmod@dividend stored from wreg
  2591  032B  00F5               	movwf	___lbmod@dividend
  2592  032C  3008               	movlw	8
  2593  032D  00F6               	movwf	___lbmod@counter
  2594  032E  01F7               	clrf	___lbmod@rem
  2595  032F                     l4185:	
  2596  032F  0875               	movf	___lbmod@dividend,w
  2597  0330  00F4               	movwf	??___lbmod
  2598  0331  3007               	movlw	7
  2599  0332  1003               	clrc
  2600  0333                     L16:	
  2601  0333  0CF4               	rrf	??___lbmod,f
  2602  0334  3EFF               	addlw	-1
  2603  0335  1003               	clrc
  2604  0336  1D03               	skipz
  2605  0337  2B33               	goto	L16
  2606  0338  0D77               	rlf	___lbmod@rem,w
  2607  0339  0474               	iorwf	??___lbmod,w
  2608  033A  00F7               	movwf	___lbmod@rem
  2609  033B  1003               	clrc
  2610  033C  0DF5               	rlf	___lbmod@dividend,f
  2611  033D  0873               	movf	___lbmod@divisor,w
  2612  033E  0277               	subwf	___lbmod@rem,w
  2613  033F  1C03               	skipc
  2614  0340  2B43               	goto	l4193
  2615  0341  0873               	movf	___lbmod@divisor,w
  2616  0342  02F7               	subwf	___lbmod@rem,f
  2617  0343                     l4193:	
  2618  0343  0BF6               	decfsz	___lbmod@counter,f
  2619  0344  2B2F               	goto	l4185
  2620  0345  0877               	movf	___lbmod@rem,w
  2621  0346  0008               	return
  2622  0347                     __end_of___lbmod:	
  2623                           
  2624                           	psect	text651
  2625  0396                     __ptext651:	
  2626 ;; =============== function ___lbmod ends ============
  2627                           
  2628                           
  2629 ;; *************** function _PWM1_WHITE *****************
  2630 ;; Defined at:
  2631 ;;		line 176 in file "FT_62F21X_pwm.c"
  2632 ;; Parameters:    Size  Location     Type
  2633 ;;		None
  2634 ;; Auto vars:     Size  Location     Type
  2635 ;;		None
  2636 ;; Return value:  Size  Location     Type
  2637 ;;		None               void
  2638 ;; Registers used:
  2639 ;;		wreg, status,2
  2640 ;; Tracked objects:
  2641 ;;		On entry : 0/0
  2642 ;;		On exit  : 20/0
  2643 ;;		Unchanged: FFFDF/0
  2644 ;; Data sizes:     COMMON   BANK0
  2645 ;;      Params:         0       0
  2646 ;;      Locals:         0       0
  2647 ;;      Temps:          0       0
  2648 ;;      Totals:         0       0
  2649 ;;Total ram usage:        0 bytes
  2650 ;; Hardware stack levels used:    1
  2651 ;; Hardware stack levels required when called:    1
  2652 ;; This function calls:
  2653 ;;		Nothing
  2654 ;; This function is called by:
  2655 ;;		_PWM1_RATE_CHANGE
  2656 ;;		_SET_MODE_REFRESH
  2657 ;; This function uses a non-reentrant model
  2658 ;;
  2659  0396                     _PWM1_WHITE:	
  2660                           
  2661                           ;FT_62F21X_pwm.c: 177: P1CDTL=0;
  2662                           
  2663                           ; Regs used in _PWM1_WHITE: [wreg+status,2]
  2664  0396  1283               	bcf	3,5	;RP0=0, select bank0
  2665  0397  0190               	clrf	16	;volatile
  2666                           
  2667                           ;FT_62F21X_pwm.c: 178: P1DDTL=0;
  2668  0398  0188               	clrf	8	;volatile
  2669                           
  2670                           ;FT_62F21X_pwm.c: 180: P1OE=0B00000000;
  2671  0399  1683               	bsf	3,5	;RP0=1, select bank1
  2672  039A  0190               	clrf	16	;volatile
  2673                           
  2674                           ;FT_62F21X_pwm.c: 188: P1BR1=0B00000100;
  2675  039B  3004               	movlw	4
  2676  039C  1283               	bcf	3,5	;RP0=0, select bank0
  2677  039D  0099               	movwf	25	;volatile
  2678  039E  0008               	return
  2679  039F                     __end_of_PWM1_WHITE:	
  2680                           
  2681                           	psect	text652
  2682  039F                     __ptext652:	
  2683 ;; =============== function _PWM1_WHITE ends ============
  2684                           
  2685                           
  2686 ;; *************** function _PWM1_BLUE *****************
  2687 ;; Defined at:
  2688 ;;		line 157 in file "FT_62F21X_pwm.c"
  2689 ;; Parameters:    Size  Location     Type
  2690 ;;		None
  2691 ;; Auto vars:     Size  Location     Type
  2692 ;;		None
  2693 ;; Return value:  Size  Location     Type
  2694 ;;		None               void
  2695 ;; Registers used:
  2696 ;;		wreg, status,2
  2697 ;; Tracked objects:
  2698 ;;		On entry : 0/0
  2699 ;;		On exit  : 20/0
  2700 ;;		Unchanged: FFFDF/0
  2701 ;; Data sizes:     COMMON   BANK0
  2702 ;;      Params:         0       0
  2703 ;;      Locals:         0       0
  2704 ;;      Temps:          0       0
  2705 ;;      Totals:         0       0
  2706 ;;Total ram usage:        0 bytes
  2707 ;; Hardware stack levels used:    1
  2708 ;; Hardware stack levels required when called:    1
  2709 ;; This function calls:
  2710 ;;		Nothing
  2711 ;; This function is called by:
  2712 ;;		_PWM1_RATE_CHANGE
  2713 ;;		_SET_MODE_REFRESH
  2714 ;; This function uses a non-reentrant model
  2715 ;;
  2716  039F                     _PWM1_BLUE:	
  2717                           
  2718                           ;FT_62F21X_pwm.c: 158: P1CDTL=0;
  2719                           
  2720                           ; Regs used in _PWM1_BLUE: [wreg+status,2]
  2721  039F  1283               	bcf	3,5	;RP0=0, select bank0
  2722  03A0  0190               	clrf	16	;volatile
  2723                           
  2724                           ;FT_62F21X_pwm.c: 159: P1DDTL=0;
  2725  03A1  0188               	clrf	8	;volatile
  2726                           
  2727                           ;FT_62F21X_pwm.c: 161: P1OE=0B10000000;
  2728  03A2  3080               	movlw	128
  2729  03A3  1683               	bsf	3,5	;RP0=1, select bank1
  2730  03A4  0090               	movwf	16	;volatile
  2731                           
  2732                           ;FT_62F21X_pwm.c: 169: P1BR1=0B00000000;
  2733  03A5  1283               	bcf	3,5	;RP0=0, select bank0
  2734  03A6  0199               	clrf	25	;volatile
  2735  03A7  0008               	return
  2736  03A8                     __end_of_PWM1_BLUE:	
  2737                           
  2738                           	psect	text653
  2739  03A8                     __ptext653:	
  2740 ;; =============== function _PWM1_BLUE ends ============
  2741                           
  2742                           
  2743 ;; *************** function _PWM1_GREEN *****************
  2744 ;; Defined at:
  2745 ;;		line 124 in file "FT_62F21X_pwm.c"
  2746 ;; Parameters:    Size  Location     Type
  2747 ;;		None
  2748 ;; Auto vars:     Size  Location     Type
  2749 ;;		None
  2750 ;; Return value:  Size  Location     Type
  2751 ;;		None               void
  2752 ;; Registers used:
  2753 ;;		wreg, status,2
  2754 ;; Tracked objects:
  2755 ;;		On entry : 0/0
  2756 ;;		On exit  : 20/0
  2757 ;;		Unchanged: FFFDF/0
  2758 ;; Data sizes:     COMMON   BANK0
  2759 ;;      Params:         0       0
  2760 ;;      Locals:         0       0
  2761 ;;      Temps:          0       0
  2762 ;;      Totals:         0       0
  2763 ;;Total ram usage:        0 bytes
  2764 ;; Hardware stack levels used:    1
  2765 ;; Hardware stack levels required when called:    1
  2766 ;; This function calls:
  2767 ;;		Nothing
  2768 ;; This function is called by:
  2769 ;;		_PWM1_RATE_CHANGE
  2770 ;;		_SET_MODE_REFRESH
  2771 ;; This function uses a non-reentrant model
  2772 ;;
  2773  03A8                     _PWM1_GREEN:	
  2774                           
  2775                           ;FT_62F21X_pwm.c: 126: P1CDTL=0;
  2776                           
  2777                           ; Regs used in _PWM1_GREEN: [wreg+status,2]
  2778  03A8  1283               	bcf	3,5	;RP0=0, select bank0
  2779  03A9  0190               	clrf	16	;volatile
  2780                           
  2781                           ;FT_62F21X_pwm.c: 127: P1DDTL=0;
  2782  03AA  0188               	clrf	8	;volatile
  2783                           
  2784                           ;FT_62F21X_pwm.c: 129: P1OE=0B00100000;
  2785  03AB  3020               	movlw	32
  2786  03AC  1683               	bsf	3,5	;RP0=1, select bank1
  2787  03AD  0090               	movwf	16	;volatile
  2788                           
  2789                           ;FT_62F21X_pwm.c: 137: P1BR1=0B00000000;
  2790  03AE  1283               	bcf	3,5	;RP0=0, select bank0
  2791  03AF  0199               	clrf	25	;volatile
  2792  03B0  0008               	return
  2793  03B1                     __end_of_PWM1_GREEN:	
  2794                           
  2795                           	psect	text654
  2796  03B1                     __ptext654:	
  2797 ;; =============== function _PWM1_GREEN ends ============
  2798                           
  2799                           
  2800 ;; *************** function _PWM1_RED *****************
  2801 ;; Defined at:
  2802 ;;		line 91 in file "FT_62F21X_pwm.c"
  2803 ;; Parameters:    Size  Location     Type
  2804 ;;		None
  2805 ;; Auto vars:     Size  Location     Type
  2806 ;;		None
  2807 ;; Return value:  Size  Location     Type
  2808 ;;		None               void
  2809 ;; Registers used:
  2810 ;;		wreg, status,2
  2811 ;; Tracked objects:
  2812 ;;		On entry : 0/0
  2813 ;;		On exit  : 20/0
  2814 ;;		Unchanged: FFFDF/0
  2815 ;; Data sizes:     COMMON   BANK0
  2816 ;;      Params:         0       0
  2817 ;;      Locals:         0       0
  2818 ;;      Temps:          0       0
  2819 ;;      Totals:         0       0
  2820 ;;Total ram usage:        0 bytes
  2821 ;; Hardware stack levels used:    1
  2822 ;; Hardware stack levels required when called:    1
  2823 ;; This function calls:
  2824 ;;		Nothing
  2825 ;; This function is called by:
  2826 ;;		_PWM1_INITIAL
  2827 ;;		_PWM1_RATE_CHANGE
  2828 ;;		_PWM_MODE_REFRESH
  2829 ;;		_SET_MODE_REFRESH
  2830 ;; This function uses a non-reentrant model
  2831 ;;
  2832  03B1                     _PWM1_RED:	
  2833  03B1                     l4161:	
  2834                           ; Regs used in _PWM1_RED: [wreg+status,2]
  2835                           
  2836                           
  2837                           ;FT_62F21X_pwm.c: 93: P1CDTL=0;
  2838  03B1  1283               	bcf	3,5	;RP0=0, select bank0
  2839  03B2  0190               	clrf	16	;volatile
  2840                           
  2841                           ;FT_62F21X_pwm.c: 94: P1DDTL=0;
  2842  03B3  0188               	clrf	8	;volatile
  2843                           
  2844                           ;FT_62F21X_pwm.c: 96: P1OE=0B00000000;
  2845  03B4  1683               	bsf	3,5	;RP0=1, select bank1
  2846  03B5  0190               	clrf	16	;volatile
  2847                           
  2848                           ;FT_62F21X_pwm.c: 104: P1BR1=0B00001000;
  2849  03B6  3008               	movlw	8
  2850  03B7  1283               	bcf	3,5	;RP0=0, select bank0
  2851  03B8  0099               	movwf	25	;volatile
  2852  03B9  0008               	return
  2853  03BA                     __end_of_PWM1_RED:	
  2854                           
  2855                           	psect	text655
  2856  02E7                     __ptext655:	
  2857 ;; =============== function _PWM1_RED ends ============
  2858                           
  2859                           
  2860 ;; *************** function _JUMP_MODE_CHANGE *****************
  2861 ;; Defined at:
  2862 ;;		line 261 in file "FT_62F21X_pwm.c"
  2863 ;; Parameters:    Size  Location     Type
  2864 ;;		None
  2865 ;; Auto vars:     Size  Location     Type
  2866 ;;		None
  2867 ;; Return value:  Size  Location     Type
  2868 ;;		None               void
  2869 ;; Registers used:
  2870 ;;		wreg, fsr0l, fsr0h, status,2, status,0
  2871 ;; Tracked objects:
  2872 ;;		On entry : 20/0
  2873 ;;		On exit  : 20/0
  2874 ;;		Unchanged: FFFDF/0
  2875 ;; Data sizes:     COMMON   BANK0
  2876 ;;      Params:         0       0
  2877 ;;      Locals:         0       0
  2878 ;;      Temps:          0       0
  2879 ;;      Totals:         0       0
  2880 ;;Total ram usage:        0 bytes
  2881 ;; Hardware stack levels used:    1
  2882 ;; Hardware stack levels required when called:    1
  2883 ;; This function calls:
  2884 ;;		Nothing
  2885 ;; This function is called by:
  2886 ;;		_main
  2887 ;; This function uses a non-reentrant model
  2888 ;;
  2889  02E7                     _JUMP_MODE_CHANGE:	
  2890  02E7  3003               	movlw	3
  2891                           
  2892                           ;FT_62F21X_pwm.c: 262: pwm_colour_value++;
  2893                           
  2894                           ; Regs used in _JUMP_MODE_CHANGE: [wreg-fsr0h+status,2+status,0]
  2895  02E8  0AFA               	incf	_pwm_colour_value,f
  2896                           
  2897                           ;FT_62F21X_pwm.c: 263: pwm_colour_value = pwm_colour_value%4;
  2898  02E9  05FA               	andwf	_pwm_colour_value,f
  2899                           
  2900                           ;FT_62F21X_pwm.c: 264: switch(pwm_colour_value)
  2901  02EA  2AFF               	goto	l4155
  2902  02EB                     l4137:	
  2903                           
  2904                           ;FT_62F21X_pwm.c: 268: P1OE=0B00000000;
  2905  02EB  1683               	bsf	3,5	;RP0=1, select bank1
  2906  02EC  0190               	clrf	16	;volatile
  2907                           
  2908                           ;FT_62F21X_pwm.c: 269: P1BR1=0B00001000;
  2909  02ED  3008               	movlw	8
  2910  02EE  1283               	bcf	3,5	;RP0=0, select bank0
  2911  02EF  0099               	movwf	25	;volatile
  2912                           
  2913                           ;FT_62F21X_pwm.c: 271: break;
  2914  02F0  0008               	return
  2915  02F1                     l4141:	
  2916                           
  2917                           ;FT_62F21X_pwm.c: 275: P1OE=0B00100000;
  2918  02F1  3020               	movlw	32
  2919  02F2                     L17:	
  2920  02F2  1683               	bsf	3,5	;RP0=1, select bank1
  2921  02F3  0090               	movwf	16	;volatile
  2922                           
  2923                           ;FT_62F21X_pwm.c: 276: P1BR1=0B00000000;
  2924  02F4  1283               	bcf	3,5	;RP0=0, select bank0
  2925  02F5  0199               	clrf	25	;volatile
  2926                           
  2927                           ;FT_62F21X_pwm.c: 278: break;
  2928  02F6  0008               	return
  2929  02F7                     l4145:	
  2930                           
  2931                           ;FT_62F21X_pwm.c: 281: P1OE=0B10000000;
  2932  02F7  3080               	movlw	128
  2933  02F8  2AF2               	goto	L17
  2934  02F9                     l4149:	
  2935                           
  2936                           ;FT_62F21X_pwm.c: 286: P1OE=0B00000000;
  2937  02F9  1683               	bsf	3,5	;RP0=1, select bank1
  2938  02FA  0190               	clrf	16	;volatile
  2939                           
  2940                           ;FT_62F21X_pwm.c: 287: P1BR1=0B00000100;
  2941  02FB  3004               	movlw	4
  2942  02FC  1283               	bcf	3,5	;RP0=0, select bank0
  2943  02FD  0099               	movwf	25	;volatile
  2944                           
  2945                           ;FT_62F21X_pwm.c: 288: break;
  2946  02FE  0008               	return
  2947  02FF                     l4155:	
  2948  02FF  087A               	movf	_pwm_colour_value,w
  2949                           
  2950                           ; Switch size 1, requested type "space"
  2951                           ; Number of cases is 4, Range of values is 0 to 3
  2952                           ; switch strategies available:
  2953                           ; Name         Instructions Cycles
  2954                           ; direct_byte           10     6 (fixed)
  2955                           ; simple_byte           13     7 (average)
  2956                           ; jumptable            260     6 (fixed)
  2957                           ; rangetable             8     6 (fixed)
  2958                           ; spacedrange           14     9 (fixed)
  2959                           ; locatedrange           4     3 (fixed)
  2960                           ;	Chosen strategy is direct_byte
  2961  0300  0084               	movwf	4
  2962  0301  3004               	movlw	4
  2963  0302  0204               	subwf	4,w
  2964  0303  1803               	skipnc
  2965  0304  0008               	return
  2966  0305  3003               	movlw	high S5313
  2967  0306  008A               	movwf	10
  2968  0307  30F7               	movlw	low S5313
  2969  0308  0704               	addwf	4,w
  2970  0309  0082               	movwf	2
  2971  030A  0008               	return
  2972  030B                     __end_of_JUMP_MODE_CHANGE:	
  2973                           
  2974                           	psect	swtext9
  2975  03F7                     __pswtext9:	
  2976  03F7                     S5313:	
  2977  03F7  2AEB               	ljmp	l4137
  2978  03F8  2AF1               	ljmp	l4141
  2979  03F9  2AF7               	ljmp	l4145
  2980  03FA  2AF9               	ljmp	l4149
  2981                           
  2982                           	psect	text656
  2983  03BA                     __ptext656:	
  2984 ;; =============== function _JUMP_MODE_CHANGE ends ============
  2985                           
  2986                           
  2987 ;; *************** function _PA3_Level_Change_INITIAL *****************
  2988 ;; Defined at:
  2989 ;;		line 37 in file "FT_62F21x_IR.c"
  2990 ;; Parameters:    Size  Location     Type
  2991 ;;		None
  2992 ;; Auto vars:     Size  Location     Type
  2993 ;;		None
  2994 ;; Return value:  Size  Location     Type
  2995 ;;		None               void
  2996 ;; Registers used:
  2997 ;;		wreg
  2998 ;; Tracked objects:
  2999 ;;		On entry : 17F/0
  3000 ;;		On exit  : 17F/20
  3001 ;;		Unchanged: FFE80/0
  3002 ;; Data sizes:     COMMON   BANK0
  3003 ;;      Params:         0       0
  3004 ;;      Locals:         0       0
  3005 ;;      Temps:          0       0
  3006 ;;      Totals:         0       0
  3007 ;;Total ram usage:        0 bytes
  3008 ;; Hardware stack levels used:    1
  3009 ;; Hardware stack levels required when called:    1
  3010 ;; This function calls:
  3011 ;;		Nothing
  3012 ;; This function is called by:
  3013 ;;		_main
  3014 ;; This function uses a non-reentrant model
  3015 ;;
  3016  03BA                     _PA3_Level_Change_INITIAL:	
  3017                           
  3018                           ;FT_62F21x_IR.c: 38: TRISA3 =1;
  3019                           
  3020                           ; Regs used in _PA3_Level_Change_INITIAL: [wreg]
  3021  03BA  1683               	bsf	3,5	;RP0=1, select bank1
  3022  03BB  1585               	bsf	5,3
  3023                           
  3024                           ;FT_62F21x_IR.c: 39: ReadAPin = PORTA;
  3025  03BC  1283               	bcf	3,5	;RP0=0, select bank0
  3026  03BD  0805               	movf	5,w	;volatile
  3027                           
  3028                           ;FT_62F21x_IR.c: 40: PAIF =0;
  3029  03BE  100B               	bcf	11,0
  3030                           
  3031                           ;FT_62F21x_IR.c: 41: IOCA3 =1;
  3032  03BF  1683               	bsf	3,5	;RP0=1, select bank1
  3033  03C0  1596               	bsf	22,3
  3034                           
  3035                           ;FT_62F21x_IR.c: 42: PAIE =1;
  3036  03C1  158B               	bsf	11,3
  3037  03C2  0008               	return
  3038  03C3                     __end_of_PA3_Level_Change_INITIAL:	
  3039                           
  3040                           	psect	text657
  3041  03D3                     __ptext657:	
  3042 ;; =============== function _PA3_Level_Change_INITIAL ends ============
  3043                           
  3044                           
  3045 ;; *************** function _TIMER0_INITIAL *****************
  3046 ;; Defined at:
  3047 ;;		line 19 in file "FT_62F21x_IR.c"
  3048 ;; Parameters:    Size  Location     Type
  3049 ;;		None
  3050 ;; Auto vars:     Size  Location     Type
  3051 ;;		None
  3052 ;; Return value:  Size  Location     Type
  3053 ;;		None               void
  3054 ;; Registers used:
  3055 ;;		wreg
  3056 ;; Tracked objects:
  3057 ;;		On entry : 17F/0
  3058 ;;		On exit  : 17F/0
  3059 ;;		Unchanged: FFE80/0
  3060 ;; Data sizes:     COMMON   BANK0
  3061 ;;      Params:         0       0
  3062 ;;      Locals:         0       0
  3063 ;;      Temps:          0       0
  3064 ;;      Totals:         0       0
  3065 ;;Total ram usage:        0 bytes
  3066 ;; Hardware stack levels used:    1
  3067 ;; Hardware stack levels required when called:    1
  3068 ;; This function calls:
  3069 ;;		Nothing
  3070 ;; This function is called by:
  3071 ;;		_main
  3072 ;; This function uses a non-reentrant model
  3073 ;;
  3074  03D3                     _TIMER0_INITIAL:	
  3075                           
  3076                           ;FT_62F21x_IR.c: 20: OPTION = 0B00000011;
  3077                           
  3078                           ; Regs used in _TIMER0_INITIAL: [wreg]
  3079  03D3  3003               	movlw	3
  3080  03D4  1683               	bsf	3,5	;RP0=1, select bank1
  3081  03D5  0081               	movwf	1	;volatile
  3082                           
  3083                           ;FT_62F21x_IR.c: 27: TMR0 = 140;
  3084  03D6  308C               	movlw	140
  3085  03D7  1283               	bcf	3,5	;RP0=0, select bank0
  3086  03D8  0081               	movwf	1	;volatile
  3087                           
  3088                           ;FT_62F21x_IR.c: 28: T0IF = 0;
  3089  03D9  110B               	bcf	11,2
  3090  03DA  0008               	return
  3091  03DB                     __end_of_TIMER0_INITIAL:	
  3092                           
  3093                           	psect	text658
  3094  03FB                     __ptext658:	
  3095 ;; =============== function _TIMER0_INITIAL ends ============
  3096                           
  3097                           
  3098 ;; *************** function _reset_led_status *****************
  3099 ;; Defined at:
  3100 ;;		line 150 in file "TEST_FT62F21X_SLEEP.C"
  3101 ;; Parameters:    Size  Location     Type
  3102 ;;		None
  3103 ;; Auto vars:     Size  Location     Type
  3104 ;;		None
  3105 ;; Return value:  Size  Location     Type
  3106 ;;		None               void
  3107 ;; Registers used:
  3108 ;;		status,2
  3109 ;; Tracked objects:
  3110 ;;		On entry : 20/0
  3111 ;;		On exit  : 20/0
  3112 ;;		Unchanged: FFFDF/0
  3113 ;; Data sizes:     COMMON   BANK0
  3114 ;;      Params:         0       0
  3115 ;;      Locals:         0       0
  3116 ;;      Temps:          0       0
  3117 ;;      Totals:         0       0
  3118 ;;Total ram usage:        0 bytes
  3119 ;; Hardware stack levels used:    1
  3120 ;; Hardware stack levels required when called:    1
  3121 ;; This function calls:
  3122 ;;		Nothing
  3123 ;; This function is called by:
  3124 ;;		_main
  3125 ;;		_PWM_MODE_REFRESH
  3126 ;; This function uses a non-reentrant model
  3127 ;;
  3128  03FB                     _reset_led_status:	
  3129                           
  3130                           ;TEST_FT62F21X_SLEEP.C: 151: time_15ms_cnt = 0;
  3131                           
  3132                           ; Regs used in _reset_led_status: [status,2]
  3133  03FB  01D2               	clrf	_time_15ms_cnt
  3134                           
  3135                           ;TEST_FT62F21X_SLEEP.C: 152: time_2s_cnt = 0;
  3136  03FC  01D3               	clrf	_time_2s_cnt
  3137  03FD  0008               	return
  3138  03FE                     __end_of_reset_led_status:	
  3139                           
  3140                           	psect	text659
  3141  0367                     __ptext659:	
  3142 ;; =============== function _reset_led_status ends ============
  3143                           
  3144                           
  3145 ;; *************** function _POWER_INITIAL *****************
  3146 ;; Defined at:
  3147 ;;		line 133 in file "TEST_FT62F21X_SLEEP.C"
  3148 ;; Parameters:    Size  Location     Type
  3149 ;;		None
  3150 ;; Auto vars:     Size  Location     Type
  3151 ;;		None
  3152 ;; Return value:  Size  Location     Type
  3153 ;;		None               void
  3154 ;; Registers used:
  3155 ;;		wreg, status,2
  3156 ;; Tracked objects:
  3157 ;;		On entry : 17F/0
  3158 ;;		On exit  : 17F/0
  3159 ;;		Unchanged: FFE80/0
  3160 ;; Data sizes:     COMMON   BANK0
  3161 ;;      Params:         0       0
  3162 ;;      Locals:         0       0
  3163 ;;      Temps:          0       0
  3164 ;;      Totals:         0       0
  3165 ;;Total ram usage:        0 bytes
  3166 ;; Hardware stack levels used:    1
  3167 ;; Hardware stack levels required when called:    1
  3168 ;; This function calls:
  3169 ;;		Nothing
  3170 ;; This function is called by:
  3171 ;;		_main
  3172 ;; This function uses a non-reentrant model
  3173 ;;
  3174  0367                     _POWER_INITIAL:	
  3175                           
  3176                           ;TEST_FT62F21X_SLEEP.C: 134: OSCCON = 0X00|0X70|0X00;
  3177                           
  3178                           ; Regs used in _POWER_INITIAL: [wreg+status,2]
  3179  0367  3070               	movlw	112
  3180  0368  1683               	bsf	3,5	;RP0=1, select bank1
  3181  0369  008F               	movwf	15	;volatile
  3182                           
  3183                           ;TEST_FT62F21X_SLEEP.C: 137: INTCON = 0;
  3184  036A  018B               	clrf	11	;volatile
  3185                           
  3186                           ;TEST_FT62F21X_SLEEP.C: 139: PORTA = 0B00000000;
  3187  036B  1283               	bcf	3,5	;RP0=0, select bank0
  3188  036C  0185               	clrf	5	;volatile
  3189                           
  3190                           ;TEST_FT62F21X_SLEEP.C: 140: TRISA = 0B00010000;
  3191  036D  3010               	movlw	16
  3192  036E  1683               	bsf	3,5	;RP0=1, select bank1
  3193  036F  0085               	movwf	5	;volatile
  3194                           
  3195                           ;TEST_FT62F21X_SLEEP.C: 141: WPUA = 0B00010000;
  3196  0370  0095               	movwf	21	;volatile
  3197                           
  3198                           ;TEST_FT62F21X_SLEEP.C: 143: OPTION = 0B00001000;
  3199  0371  3008               	movlw	8
  3200  0372  0081               	movwf	1	;volatile
  3201                           
  3202                           ;TEST_FT62F21X_SLEEP.C: 145: MSCON = 0B00000000;
  3203  0373  1283               	bcf	3,5	;RP0=0, select bank0
  3204  0374  019B               	clrf	27	;volatile
  3205  0375  0008               	return
  3206  0376                     __end_of_POWER_INITIAL:	
  3207                           
  3208                           	psect	text660
  3209  018E                     __ptext660:	
  3210 ;; =============== function _POWER_INITIAL ends ============
  3211                           
  3212                           
  3213 ;; *************** function _ISR *****************
  3214 ;; Defined at:
  3215 ;;		line 61 in file "TEST_FT62F21X_SLEEP.C"
  3216 ;; Parameters:    Size  Location     Type
  3217 ;;		None
  3218 ;; Auto vars:     Size  Location     Type
  3219 ;;		None
  3220 ;; Return value:  Size  Location     Type
  3221 ;;		None               void
  3222 ;; Registers used:
  3223 ;;		wreg, fsr0l, fsr0h, status,2, status,0
  3224 ;; Tracked objects:
  3225 ;;		On entry : 0/0
  3226 ;;		On exit  : 0/0
  3227 ;;		Unchanged: FFEDF/0
  3228 ;; Data sizes:     COMMON   BANK0
  3229 ;;      Params:         0       0
  3230 ;;      Locals:         0       0
  3231 ;;      Temps:          3       0
  3232 ;;      Totals:         3       0
  3233 ;;Total ram usage:        3 bytes
  3234 ;; Hardware stack levels used:    1
  3235 ;; This function calls:
  3236 ;;		Nothing
  3237 ;; This function is called by:
  3238 ;;		Interrupt level 1
  3239 ;; This function uses a non-reentrant model
  3240 ;;
  3241  018E                     _ISR:	
  3242                           
  3243                           ;TEST_FT62F21X_SLEEP.C: 64: if(TMR2IE && TMR2IF)
  3244  018E  1683               	bsf	3,5	;RP0=1, select bank1
  3245  018F  1C8C               	btfss	12,1
  3246  0190  2997               	goto	i1l4055
  3247  0191  1283               	bcf	3,5	;RP0=0, select bank0
  3248  0192  1C8C               	btfss	12,1
  3249  0193  2997               	goto	i1l4055
  3250                           
  3251                           ;TEST_FT62F21X_SLEEP.C: 65: {
  3252                           ;TEST_FT62F21X_SLEEP.C: 66: TMR2IF = 0;
  3253  0194  108C               	bcf	12,1
  3254                           
  3255                           ;TEST_FT62F21X_SLEEP.C: 67: time_15ms_cnt++;
  3256  0195  0AD2               	incf	_time_15ms_cnt,f
  3257                           
  3258                           ;TEST_FT62F21X_SLEEP.C: 68: auto_power_off_timer_L++;
  3259  0196  0ACB               	incf	_auto_power_off_timer_L,f
  3260  0197                     i1l4055:	
  3261                           
  3262                           ;TEST_FT62F21X_SLEEP.C: 70: }
  3263                           ;TEST_FT62F21X_SLEEP.C: 74: if(T0IE && T0IF)
  3264  0197  1A8B               	btfsc	11,5
  3265  0198  1D0B               	btfss	11,2
  3266  0199  29A5               	goto	i1l4071
  3267                           
  3268                           ;TEST_FT62F21X_SLEEP.C: 75: {
  3269                           ;TEST_FT62F21X_SLEEP.C: 76: TMR0 = 140;
  3270  019A  308C               	movlw	140
  3271  019B  1283               	bcf	3,5	;RP0=0, select bank0
  3272  019C  0081               	movwf	1	;volatile
  3273  019D  3033               	movlw	51
  3274                           
  3275                           ;TEST_FT62F21X_SLEEP.C: 78: T0IF = 0;
  3276  019E  110B               	bcf	11,2
  3277                           
  3278                           ;TEST_FT62F21X_SLEEP.C: 79: IRbitTime++;
  3279  019F  0AC9               	incf	_IRbitTime,f
  3280                           
  3281                           ;TEST_FT62F21X_SLEEP.C: 80: if(IRbitTime > 50)
  3282  01A0  0249               	subwf	_IRbitTime,w
  3283  01A1  1C03               	skipc
  3284  01A2  29A5               	goto	i1l4071
  3285                           
  3286                           ;TEST_FT62F21X_SLEEP.C: 81: {
  3287                           ;TEST_FT62F21X_SLEEP.C: 82: T0IE = 0;
  3288  01A3  128B               	bcf	11,5
  3289                           
  3290                           ;TEST_FT62F21X_SLEEP.C: 83: IRbitTime = 0;
  3291  01A4  01C9               	clrf	_IRbitTime
  3292  01A5                     i1l4071:	
  3293                           
  3294                           ;TEST_FT62F21X_SLEEP.C: 84: }
  3295                           ;TEST_FT62F21X_SLEEP.C: 85: }
  3296                           ;TEST_FT62F21X_SLEEP.C: 88: if(PAIE && PAIF)
  3297  01A5  198B               	btfsc	11,3
  3298  01A6  1C0B               	btfss	11,0
  3299  01A7  29D4               	goto	i1l723
  3300                           
  3301                           ;TEST_FT62F21X_SLEEP.C: 89: {
  3302                           ;TEST_FT62F21X_SLEEP.C: 90: ReadAPin = PORTA;
  3303  01A8  1283               	bcf	3,5	;RP0=0, select bank0
  3304  01A9  0805               	movf	5,w	;volatile
  3305                           
  3306                           ;TEST_FT62F21X_SLEEP.C: 91: PAIF = 0;
  3307  01AA  100B               	bcf	11,0
  3308                           
  3309                           ;TEST_FT62F21X_SLEEP.C: 92: if(RA3 == 0)
  3310  01AB  1985               	btfsc	5,3
  3311  01AC  29D4               	goto	i1l723
  3312  01AD  3016               	movlw	22
  3313                           
  3314                           ;TEST_FT62F21X_SLEEP.C: 93: {
  3315                           ;TEST_FT62F21X_SLEEP.C: 94: T0IE = 1;
  3316  01AE  168B               	bsf	11,5
  3317                           
  3318                           ;TEST_FT62F21X_SLEEP.C: 95: if(IRbitTime > 21)
  3319  01AF  0249               	subwf	_IRbitTime,w
  3320  01B0  1C03               	skipc
  3321  01B1  29B9               	goto	i1l4087
  3322                           
  3323                           ;TEST_FT62F21X_SLEEP.C: 96: {
  3324                           ;TEST_FT62F21X_SLEEP.C: 97: IRDataTimer[0] = 0;
  3325  01B2  01C0               	clrf	_IRDataTimer
  3326                           
  3327                           ;TEST_FT62F21X_SLEEP.C: 98: IRDataTimer[1] = 0;
  3328  01B3  01C1               	clrf	_IRDataTimer+1
  3329                           
  3330                           ;TEST_FT62F21X_SLEEP.C: 99: IRDataTimer[2] = 0;
  3331  01B4  01C2               	clrf	_IRDataTimer+2
  3332                           
  3333                           ;TEST_FT62F21X_SLEEP.C: 100: IRDataTimer[3] = 0;
  3334  01B5  01C3               	clrf	_IRDataTimer+3
  3335                           
  3336                           ;TEST_FT62F21X_SLEEP.C: 101: IRbitNum = 0;
  3337  01B6  01C8               	clrf	_IRbitNum
  3338                           
  3339                           ;TEST_FT62F21X_SLEEP.C: 102: bitdata = 0x00;
  3340  01B7  01E1               	clrf	_bitdata
  3341                           
  3342                           ;TEST_FT62F21X_SLEEP.C: 103: }
  3343  01B8  29C3               	goto	i1l4091
  3344  01B9                     i1l4087:	
  3345                           
  3346                           ;TEST_FT62F21X_SLEEP.C: 104: else if(IRbitTime > 3)
  3347  01B9  3004               	movlw	4
  3348  01BA  0249               	subwf	_IRbitTime,w
  3349  01BB  1C03               	skipc
  3350  01BC  29C3               	goto	i1l4091
  3351                           
  3352                           ;TEST_FT62F21X_SLEEP.C: 105: {
  3353                           ;TEST_FT62F21X_SLEEP.C: 106: IRDataTimer[IRbitNum-1] |= bitdata;
  3354  01BD  0848               	movf	_IRbitNum,w
  3355  01BE  3E3F               	addlw	(_IRDataTimer+-1)& (0+255)
  3356  01BF  0084               	movwf	4
  3357  01C0  0861               	movf	_bitdata,w
  3358  01C1  1383               	bcf	3,7	;select IRP bank0
  3359  01C2  0480               	iorwf	0,f
  3360  01C3                     i1l4091:	
  3361                           
  3362                           ;TEST_FT62F21X_SLEEP.C: 107: }
  3363                           ;TEST_FT62F21X_SLEEP.C: 108: IRbitTime = 0;
  3364  01C3  01C9               	clrf	_IRbitTime
  3365                           
  3366                           ;TEST_FT62F21X_SLEEP.C: 109: bitdata<<=1;
  3367  01C4  1003               	clrc
  3368  01C5  0DE1               	rlf	_bitdata,f
  3369                           
  3370                           ;TEST_FT62F21X_SLEEP.C: 110: if(bitdata == 0)
  3371  01C6  08E1               	movf	_bitdata,f
  3372  01C7  1D03               	skipz
  3373  01C8  29CC               	goto	i1l4101
  3374                           
  3375                           ;TEST_FT62F21X_SLEEP.C: 111: {
  3376                           ;TEST_FT62F21X_SLEEP.C: 112: bitdata = 0x01;
  3377  01C9  01E1               	clrf	_bitdata
  3378  01CA  0AE1               	incf	_bitdata,f
  3379                           
  3380                           ;TEST_FT62F21X_SLEEP.C: 113: IRbitNum++;
  3381  01CB  0AC8               	incf	_IRbitNum,f
  3382  01CC                     i1l4101:	
  3383                           
  3384                           ;TEST_FT62F21X_SLEEP.C: 114: }
  3385                           ;TEST_FT62F21X_SLEEP.C: 115: if(IRbitNum > 4)
  3386  01CC  3005               	movlw	5
  3387  01CD  0248               	subwf	_IRbitNum,w
  3388  01CE  1C03               	skipc
  3389  01CF  29D4               	goto	i1l723
  3390                           
  3391                           ;TEST_FT62F21X_SLEEP.C: 116: {
  3392                           ;TEST_FT62F21X_SLEEP.C: 117: IRbitNum = 0;
  3393  01D0  01C8               	clrf	_IRbitNum
  3394                           
  3395                           ;TEST_FT62F21X_SLEEP.C: 118: T0IE = 0;
  3396  01D1  128B               	bcf	11,5
  3397                           
  3398                           ;TEST_FT62F21X_SLEEP.C: 119: ReceiveFinish = 1;
  3399  01D2  01CA               	clrf	_ReceiveFinish
  3400  01D3  0ACA               	incf	_ReceiveFinish,f
  3401  01D4                     i1l723:	
  3402  01D4  0872               	movf	??_ISR+2,w
  3403  01D5  008A               	movwf	10
  3404  01D6  0871               	movf	??_ISR+1,w
  3405  01D7  0084               	movwf	4
  3406  01D8  0E70               	swapf	??_ISR^(0+-128),w
  3407  01D9  0083               	movwf	3
  3408  01DA  0EFE               	swapf	126,f
  3409  01DB  0E7E               	swapf	126,w
  3410  01DC  0009               	retfie
  3411  01DD                     __end_of_ISR:	
  3412                           
  3413                           	psect	intentry
  3414  0004                     __pintentry:	
  3415                           ; Regs used in _ISR: [wreg-fsr0h+status,2+status,0]
  3416                           
  3417  0004                     interrupt_function:	
  3418  007E                     saved_w	set	btemp
  3419  0004  00FE               	movwf	btemp
  3420  0005  0E03               	swapf	3,w
  3421  0006  00F0               	movwf	??_ISR
  3422  0007  0804               	movf	4,w
  3423  0008  00F1               	movwf	??_ISR+1
  3424  0009  080A               	movf	10,w
  3425  000A  00F2               	movwf	??_ISR+2
  3426  000B  298E               	ljmp	_ISR
  3427                           
  3428                           	psect	text661
  3429  0000                     __ptext661:	
  3430 ;; =============== function _ISR ends ============
  3431                           
  3432  007E                     btemp	set	126	;btemp
  3433  007E                     wtemp0	set	126


HI-TECH Software PICC Macro Assembler V9.83 build 10920 
Symbol Table                                                                                   Sun May 30 22:22:27 2021

                                pc 0002                                 fsr 0004  
                              l726 0000                                l729 0000  
                              l754 0179                                _GIE 005F  
                              _RA3 002B                                _RA4 002C  
                              _ISR 018E                                fsr0 0004  
                              indf 0000            __end_of_PWM_MODE_CHANGE 0382  
                             S5301 03DB                               S5311 03F3  
                             S5303 03CB                               S5313 03F7  
                             S5305 0382                               S5307 03E1  
                             S5309 03EF                               S5297 03E7  
                             S5299 03EB                               ?_ISR 0070  
                             l1510 0000                               l1451 0000  
                             l1445 0000                               l1454 0000  
                             l1518 0000                               l4111 0000  
                             l2263 0000                               l1448 0000  
                             l4113 0000                               l4121 0000  
                             l1457 0000                               l5001 0000  
                             l2266 0000                               l1554 0028  
                             l4115 0000                               l4131 0000  
                             l4123 0000                               l4211 0000  
                             l5003 0000                               l1492 0000  
                             l4109 0000                               l4117 0000  
                             l4125 0000                               l4141 02F1  
                             l4133 0000                               l4221 0000  
                             l4213 0000                               l5101 0000  
                             l4119 0000                               l4127 0000  
                             l4151 0000                               l4135 0000  
                             l4231 0000                               l4223 0000  
                             l4215 0000                               l4311 0000  
                             l5103 015A                               l5031 0000  
                             l4129 0000                               l4145 02F7  
                             l4137 02EB                               l4161 03B1  
                             l4233 0000                               l4225 0000  
                             l4217 0000                               l4241 0000  
                             l4321 01EB                               l4313 0000  
                             l5009 00CF                               l5113 0161  
                             l5105 015C                               l5041 0000  
                             l4139 0000                               l4155 02FF  
                             l4163 0000                               l4171 0000  
                             l4227 0000                               l4219 0000  
                             l4243 0229                               l4235 0000  
                             l4323 0000                               l4315 01E6  
                             l5131 0000                               l5107 0000  
                             l5043 0101                               l5027 0000  
                             l4149 02F9                               l4165 0000  
                             l4173 0000                               l4181 0000  
                             l4229 0000                               l4261 0240  
                             l4245 022B                               l4253 0231  
                             l4341 01FC                               l4333 01F4  
                             l4325 01FD                               l4317 01E8  
                             l4309 01DD                               l4405 0381  
                             l5117 0000                               l5133 0188  
                             l5053 0000                               l5029 00F2  
                             l2902 025B                               l4167 0000  
                             l4175 0000                               l4183 0000  
                             l4263 0243                               l4271 0246  
                             l4247 022D                               l4239 0000  
                             l4255 0239                               l4351 0000  
                             l4327 01FF                               l5135 0000  
                             l5127 0000                               l5063 0000  
                             l5055 0110                               l5039 0000  
                             l5071 0121                               l4169 0000  
                             l4177 0000                               l4193 0343  
                             l4185 032F                               l2905 0000  
                             l4249 022F                               l4281 0000  
                             l4353 020D                               l4345 0203  
                             l4337 01F6                               l4329 01EE  
                             l5129 0185                               l5049 0000  
                             l5057 0111                               l4179 0000  
                             l4195 0000                               l4187 0000  
                             l4291 0000                               l4283 0000  
                             l4355 020F                               l4347 0205  
                             l4339 0000                               l4363 0214  
                             l4371 0000                               l5083 0000  
                             l5067 0000                               l4189 0000  
                             l4293 02A5                               l4285 029B  
                             l4357 0000                               l4349 0207  
                             l4373 0000                               l5093 0000  
                             l5077 0000                               l5085 0147  
                             l5069 0120                               l4295 0000  
                             l4287 029D                               l4375 038F  
                             l5079 0000                               l4297 02AB  
                             l4289 029F                               l4385 035E  
                             l4393 0359                               l4377 0000  
                             l5097 0000                               l5089 014B  
                             l2866 0000                               l4299 02AD  
                             l4387 0000                               l4395 0000  
                             l4389 0000                               l4397 0000  
                             l4901 0000                               l4911 0000  
                             l4903 0000                               l4921 005E  
                             l4905 0000                               l4851 0000  
                             l4931 006D                               l4915 0058  
                             l4907 0000                               l4933 0000  
                             l4917 005A                               l4925 0060  
                             l4909 0000                               l4855 0271  
                             l4943 0078                               l4935 0070  
                             l4951 0083                               l4919 005C  
                             l4927 0068                               l4863 0000  
                             l4857 0000                               l4961 0000  
                             l4945 0000                               l4873 001A  
                             l4865 0000                               l4963 0093  
                             l4955 0088                               l4939 0076  
                             l4891 0000                               l4957 008A  
                             l4973 009E                               l4949 007B  
                             l4981 00B1                               l4893 0000  
                             l4885 0028                               l4877 0022  
                             l4869 0014                               l4991 00C0  
                             l4983 00B5                               l4967 0095  
                             l4959 008F                               l4975 00A9  
                             l4895 0000                               l4887 0000  
                             l4993 00BF                               l4985 0000  
                             l4969 0097                               l4897 0000  
                             l4889 0000                               l4987 0000  
                             l4979 0000                               l4899 0000  
                             l4999 00C4                               _P1OE 0090  
                             _T0IE 005D                               _T0IF 005A  
                             _PAIE 005B                               _PAIF 0058  
                             _PEIE 005E                               _PR2H 0092  
                             _PR2L 0091                               _TMR0 0001  
                             _WPUA 0095                               _main 00EE  
                ?_SET_MODE_REFRESH 0070                               btemp 007E  
                             start 000C                    __end_of_DelayMs 0367  
                  __end_of_DelayUs 0396                 ??_SET_MODE_REFRESH 0078  
             _set_time_mode_backup 0079            __end_of_MIX_MODE_CHANGE 02AF  
                            ??_ISR 0070                     _TIMER0_INITIAL 03D3  
                            ?_main 0070           __end_of_PWM_MODE_REFRESH 0220  
                            _P1BR1 0019                    __end_of___lbmod 0347  
                            _P1CON 0016                              _P1AUX 001E  
                            _P1POL 0099                              _IOCA3 04B3  
                   _pwm_rate_value 0050                              i1l723 01D4  
                      ?_PWM1_GREEN 0070                              _MSCON 001B  
                            _TMR2H 0013                              _TMR2L 0011  
                            _PORTA 0005                              _TRISA 0085  
                      ?_PWM1_WHITE 0070                ___lmul@multiplicand 0058  
               __size_of_PWM1_BLUE 0009                   __end_of_PWM1_RED 03BA  
                 _pwm_colour_value 007A                              main@i 0060  
                            pclath 000A                              status 0003  
                            wtemp0 007E   __end_of_PA3_Level_Change_INITIAL 03C3  
                     __end_of_main 018E             __end_of_TIMER0_INITIAL 03DB  
                           ??_main 005C                  ?_JUMP_MODE_CHANGE 0070  
                 ?_PWM_MODE_CHANGE 0070                             _P1CDTH 001A  
                           _P1CDTL 0010                             _P1DDTH 0009  
                           _P1DDTL 0008                             _T2CON0 0012  
                           _T2CON1 009E                 ??_JUMP_MODE_CHANGE 0073  
                           i1l4101 01CC                             i1l4105 0000  
                           i1l4107 0000                             i1l4061 0000  
                           i1l4053 0000                             i1l4063 0000  
                           i1l4071 01A5                             i1l4055 0197  
                           i1l4047 0000                             i1l4065 0000  
                           i1l4091 01C3                             i1l4083 0000  
                           i1l4093 0000                             i1l4077 0000  
                           i1l4069 0000                             i1l4095 0000  
                           i1l4087 01B9                             i1l4079 0000  
                           i1l4099 0000                             _INTCON 000B  
                        ??_DelayMs 0075                          ??_DelayUs 0073  
                           _OSCCON 008F                             _TMR2IE 0461  
                           _TMR2IF 0061                             _OPTION 0081  
                           _TMR2ON 0092                             _TRISA3 042B  
        __size_of_PWM1_RATE_CHANGE 0032                __size_of_PWM1_GREEN 0009  
              __size_of_PWM1_WHITE 0009                  __end_of_PWM1_BLUE 03A8  
                           ___lmul 0257                    ?_TIMER0_INITIAL 0070  
                 ?_MIX_MODE_CHANGE 0070                          ??___lbmod 0074  
                           clrloop 03C4                       __pdataCOMMON 0078  
                           saved_w 007E              __end_of_POWER_INITIAL 0376  
                  ___lbmod@divisor 0073                  ?_reset_led_status 0070  
                  ___lbmod@counter 0076                 ??_reset_led_status 0073  
                    _ReceiveFinish 004A                     __pcstackCOMMON 0070  
         _PA3_Level_Change_INITIAL 03BA                       __pidataBANK0 0000  
                        ?_PWM1_RED 0070                         __pbssBANK0 0040  
                       __pmaintext 00EE                            ?___lmul 0054  
                       ??_PWM1_RED 0073                         __pintentry 0004  
                   ___lmul@product 0073          __size_of_SET_MODE_REFRESH 00D1  
                     ??_PWM1_GREEN 0073                  ?_PWM_MODE_REFRESH 0070  
                     ??_PWM1_WHITE 0073                      ?_PWM1_INITIAL 0070  
               ??_PWM_MODE_REFRESH 0073                            _DelayMs 0357  
                          _DelayUs 038D                   _PWM1_RATE_CHANGE 0220  
               __end_of_PWM1_GREEN 03B1                 __end_of_PWM1_WHITE 039F  
                  __size_of___lmul 0033                            ___lbmod 032B  
                          _bitdata 0061                       __size_of_ISR 004F  
                   ??_PWM1_INITIAL 0073               end_of_initialization 0355  
                 ??_TIMER0_INITIAL 0073          __size_of_JUMP_MODE_CHANGE 0024  
                        _PWM1_BLUE 039F                   ___lbmod@dividend 0075  
                        _IRbitTime 0049                        ___lbmod@rem 0077  
       ??_PA3_Level_Change_INITIAL 0073           __size_of_PWM_MODE_CHANGE 000C  
        PWM1_RATE_CHANGE@pwm_value 0073                     __end_of___lmul 028A  
                       ?_PWM1_BLUE 0070          __size_of_reset_led_status 0003  
                    __pidataCOMMON 0000                  __size_of_PWM1_RED 0009  
                 _SET_MODE_REFRESH 000D           __size_of_MIX_MODE_CHANGE 0025  
              start_initialization 0347                        __end_of_ISR 01DD  
             __end_of_PWM1_INITIAL 032B                           ??___lmul 0073  
                      __pdataBANK0 0061             __size_of_POWER_INITIAL 000F  
                     _ir_key_value 02C1           __end_of_PWM1_RATE_CHANGE 0252  
                      __pbssCOMMON 007A                      __pcstackBANK0 0054  
                    _jump_led_rate 0078                           ?_DelayMs 0070  
                         ?_DelayUs 0070                      _time_15ms_cnt 0052  
        __size_of_PWM_MODE_REFRESH 0043                   _JUMP_MODE_CHANGE 02E7  
                        __ptext641 000D                          __ptext650 032B  
                        __ptext642 0376                          __ptext651 0396  
                        __ptext643 0357                           ?___lbmod 0073  
                        __ptext660 018E                          __ptext652 039F  
                        __ptext644 038D                          __ptext661 0000  
                        __ptext653 03A8                          __ptext645 01DD  
                        __ptext654 03B1                          __ptext646 028A  
                        __ptext655 02E7                          __ptext647 0220  
                        __ptext656 03BA                          __ptext648 030B  
                        __ptext657 03D3                          __ptext649 0257  
                        __ptext658 03FB                          __ptext659 0367  
                ??_PWM_MODE_CHANGE 0073                        ??_PWM1_BLUE 0073  
                        __pstrings 02BB                          __pswtext1 03E7  
                        __pswtext2 03EB                          __pswtext3 03DB  
                        __pswtext4 03CB                          __pswtext5 0382  
                        __pswtext6 03E1                          __pswtext7 03EF  
                        __pswtext8 03F3                          __pswtext9 03F7  
                ??_MIX_MODE_CHANGE 0078                  interrupt_function 0004  
                    _POWER_INITIAL 0367                           DelayMs@a 0076  
                         DelayMs@b 0077                           DelayUs@a 0074  
                        _temp_mode 0051                           _PWM1_RED 03B1  
                 _reset_led_status 03FB                           _IRbitNum 0048  
                      __stringbase 02C0                  ___lmul@multiplier 0054  
                      DelayMs@Time 0075                     ?_POWER_INITIAL 0070  
            __size_of_PWM1_INITIAL 0020           __end_of_SET_MODE_REFRESH 00DE  
                      DelayUs@Time 0073                   __size_of_DelayMs 0010  
                 __size_of_DelayUs 0009                   _ft_user_set_mode 004D  
                 __size_of___lbmod 001C             _auto_power_off_timer_H 0044  
           _auto_power_off_timer_L 004B                   _ft_user_pwm_mode 004C  
                      _key_release 004E                       _PWM1_INITIAL 030B  
                 _PWM_MODE_REFRESH 01DD                      __size_of_main 00A0  
                         clear_ram 03C3                        _IRDataTimer 0040  
__size_of_PA3_Level_Change_INITIAL 0009            __size_of_TIMER0_INITIAL 0008  
        ?_PA3_Level_Change_INITIAL 0070                  ?_PWM1_RATE_CHANGE 0070  
         __end_of_JUMP_MODE_CHANGE 030B                 ??_PWM1_RATE_CHANGE 0073  
                  ??_POWER_INITIAL 0073                           intlevel1 0000  
                  _PWM_MODE_CHANGE 0376                        _time_2s_cnt 0053  
                        stringcode 02BB                    _MIX_MODE_CHANGE 028A  
                       _PWM1_GREEN 03A8              _power_off_mode_backup 0062  
                       _PWM1_WHITE 0396                           stringdir 02BB  
                         stringtab 02BB                     _power_off_flag 004F  
         __end_of_reset_led_status 03FE  
