//Deviec:FT60F21X
//-----------------------Variable---------------------------------
		_IRbitNum		EQU		74H
		_IRbitTime		EQU		75H
		_IRDataTimer		EQU		70H
		_bitdata		EQU		7CH
		_pwm_rate_value		EQU		77H
		_pwm_colour_value		EQU		76H
		_time_15ms_cnt		EQU		78H
//-----------------------Variable END---------------------------------
		ORG		0000H
		LJUMP 	0CH 			//0000 	380C
		ORG		0004H
		STR 	7EH 			//0004 	01FE
		SWAPR 	STATUS,0 		//0005 	0703
		STR 	79H 			//0006 	01F9
		LDR 	FSR,0 			//0007 	0804
		STR 	7AH 			//0008 	01FA
		LDR 	PCLATH,0 		//0009 	080A
		STR 	7BH 			//000A 	01FB
		LJUMP 	0DH 			//000B 	380D
		ORG		000CH
		LJUMP 	AAH 			//000C 	38AA

		//;TEST_FT62F21X_SLEEP.C: 37: if(TMR2IE && TMR2IF)
		BSR 	STATUS,5 		//000D 	1A83
		BTSS 	CH,1 			//000E 	1C8C
		LJUMP 	15H 			//000F 	3815
		BCR 	STATUS,5 		//0010 	1283
		BTSS 	CH,1 			//0011 	1C8C
		LJUMP 	15H 			//0012 	3815

		//;TEST_FT62F21X_SLEEP.C: 38: {
		//;TEST_FT62F21X_SLEEP.C: 39: TMR2IF = 0;
		BCR 	CH,1 			//0013 	108C
		ORG		0014H

		//;TEST_FT62F21X_SLEEP.C: 40: time_15ms_cnt++;
		INCR	78H,1 			//0014 	09F8

		//;TEST_FT62F21X_SLEEP.C: 42: }
		//;TEST_FT62F21X_SLEEP.C: 46: if(T0IE && T0IF)
		BTSC 	INTCON,5 		//0015 	168B
		BTSS 	INTCON,2 		//0016 	1D0B
		LJUMP 	23H 			//0017 	3823

		//;TEST_FT62F21X_SLEEP.C: 47: {
		//;TEST_FT62F21X_SLEEP.C: 48: TMR0 = 140;
		LDWI 	8CH 			//0018 	2A8C
		BCR 	STATUS,5 		//0019 	1283
		STR 	1H 			//001A 	0181
		LDWI 	33H 			//001B 	2A33
		ORG		001CH

		//;TEST_FT62F21X_SLEEP.C: 50: T0IF = 0;
		BCR 	INTCON,2 		//001C 	110B

		//;TEST_FT62F21X_SLEEP.C: 51: IRbitTime++;
		INCR	75H,1 			//001D 	09F5

		//;TEST_FT62F21X_SLEEP.C: 52: if(IRbitTime > 50)
		SUBWR 	75H,0 			//001E 	0C75
		BTSS 	STATUS,0 		//001F 	1C03
		LJUMP 	23H 			//0020 	3823

		//;TEST_FT62F21X_SLEEP.C: 53: {
		//;TEST_FT62F21X_SLEEP.C: 54: T0IE = 0;
		BCR 	INTCON,5 		//0021 	128B

		//;TEST_FT62F21X_SLEEP.C: 55: IRbitTime = 0;
		CLRR 	75H 			//0022 	0175

		//;TEST_FT62F21X_SLEEP.C: 56: }
		//;TEST_FT62F21X_SLEEP.C: 57: }
		//;TEST_FT62F21X_SLEEP.C: 60: if(PAIE && PAIF)
		BTSC 	INTCON,3 		//0023 	158B
		ORG		0024H
		BTSS 	INTCON,0 		//0024 	1C0B
		LJUMP 	4FH 			//0025 	384F

		//;TEST_FT62F21X_SLEEP.C: 61: {
		//;TEST_FT62F21X_SLEEP.C: 62: ReadAPin = PORTA;
		BCR 	STATUS,5 		//0026 	1283
		LDR 	5H,0 			//0027 	0805

		//;TEST_FT62F21X_SLEEP.C: 63: PAIF = 0;
		BCR 	INTCON,0 		//0028 	100B

		//;TEST_FT62F21X_SLEEP.C: 64: if(RA3 == 0)
		BTSC 	5H,3 			//0029 	1585
		LJUMP 	4FH 			//002A 	384F
		LDWI 	16H 			//002B 	2A16
		ORG		002CH

		//;TEST_FT62F21X_SLEEP.C: 65: {
		//;TEST_FT62F21X_SLEEP.C: 66: T0IE = 1;
		BSR 	INTCON,5 		//002C 	1A8B

		//;TEST_FT62F21X_SLEEP.C: 67: if(IRbitTime > 21)
		SUBWR 	75H,0 			//002D 	0C75
		BTSS 	STATUS,0 		//002E 	1C03
		LJUMP 	37H 			//002F 	3837

		//;TEST_FT62F21X_SLEEP.C: 68: {
		//;TEST_FT62F21X_SLEEP.C: 69: IRDataTimer[0] = 0;
		CLRR 	70H 			//0030 	0170

		//;TEST_FT62F21X_SLEEP.C: 70: IRDataTimer[1] = 0;
		CLRR 	71H 			//0031 	0171

		//;TEST_FT62F21X_SLEEP.C: 71: IRDataTimer[2] = 0;
		CLRR 	72H 			//0032 	0172

		//;TEST_FT62F21X_SLEEP.C: 72: IRDataTimer[3] = 0;
		CLRR 	73H 			//0033 	0173
		ORG		0034H

		//;TEST_FT62F21X_SLEEP.C: 73: IRbitNum = 0;
		CLRR 	74H 			//0034 	0174

		//;TEST_FT62F21X_SLEEP.C: 74: bitdata = 0x00;
		CLRR 	7CH 			//0035 	017C

		//;TEST_FT62F21X_SLEEP.C: 75: }
		LJUMP 	40H 			//0036 	3840

		//;TEST_FT62F21X_SLEEP.C: 76: else if(IRbitTime > 3)
		LDWI 	4H 			//0037 	2A04
		SUBWR 	75H,0 			//0038 	0C75
		BTSS 	STATUS,0 		//0039 	1C03
		LJUMP 	40H 			//003A 	3840

		//;TEST_FT62F21X_SLEEP.C: 77: {
		//;TEST_FT62F21X_SLEEP.C: 78: IRDataTimer[IRbitNum-1] |= bitdata;
		LDR 	74H,0 			//003B 	0874
		ORG		003CH
		ADDWI 	6FH 			//003C 	276F
		STR 	FSR 			//003D 	0184
		LDR 	7CH,0 			//003E 	087C
		IORWR 	INDF,1 		//003F 	0380

		//;TEST_FT62F21X_SLEEP.C: 79: }
		//;TEST_FT62F21X_SLEEP.C: 80: IRbitTime = 0;
		CLRR 	75H 			//0040 	0175

		//;TEST_FT62F21X_SLEEP.C: 81: bitdata<<=1;
		BCR 	STATUS,0 		//0041 	1003
		RLR 	7CH,1 			//0042 	05FC

		//;TEST_FT62F21X_SLEEP.C: 82: if(bitdata == 0)
		LDR 	7CH,1 			//0043 	08FC
		ORG		0044H
		BTSS 	STATUS,2 		//0044 	1D03
		LJUMP 	49H 			//0045 	3849

		//;TEST_FT62F21X_SLEEP.C: 83: {
		//;TEST_FT62F21X_SLEEP.C: 84: bitdata = 0x01;
		CLRR 	7CH 			//0046 	017C
		INCR	7CH,1 			//0047 	09FC

		//;TEST_FT62F21X_SLEEP.C: 85: IRbitNum++;
		INCR	74H,1 			//0048 	09F4

		//;TEST_FT62F21X_SLEEP.C: 86: }
		//;TEST_FT62F21X_SLEEP.C: 87: if(IRbitNum > 4)
		LDWI 	5H 			//0049 	2A05
		SUBWR 	74H,0 			//004A 	0C74
		BTSS 	STATUS,0 		//004B 	1C03
		ORG		004CH
		LJUMP 	4FH 			//004C 	384F

		//;TEST_FT62F21X_SLEEP.C: 88: {
		//;TEST_FT62F21X_SLEEP.C: 89: IRbitNum = 0;
		CLRR 	74H 			//004D 	0174

		//;TEST_FT62F21X_SLEEP.C: 91: ReceiveFinish = 1;
		BCR 	INTCON,5 		//004E 	128B
		LDR 	7BH,0 			//004F 	087B
		STR 	PCLATH 			//0050 	018A
		LDR 	7AH,0 			//0051 	087A
		STR 	FSR 			//0052 	0184
		SWAPR 	79H,0 			//0053 	0779
		ORG		0054H
		STR 	STATUS 			//0054 	0183
		SWAPR 	7EH,1 			//0055 	07FE
		SWAPR 	7EH,0 			//0056 	077E
		RETI		 			//0057 	0009

		//;FT_62F21X_pwm.c: 147: if(pwm_rate_value >= 200)
		LDWI 	C8H 			//0058 	2AC8
		SUBWR 	77H,0 			//0059 	0C77
		BTSS 	STATUS,0 		//005A 	1C03
		LJUMP 	74H 			//005B 	3874
		ORG		005CH
		LDWI 	3H 			//005C 	2A03

		//;FT_62F21X_pwm.c: 148: {
		//;FT_62F21X_pwm.c: 149: pwm_rate_value = 0;
		CLRR 	77H 			//005D 	0177

		//;FT_62F21X_pwm.c: 150: pwm_colour_value++;
		INCR	76H,1 			//005E 	09F6

		//;FT_62F21X_pwm.c: 151: pwm_colour_value = pwm_colour_value%4;
		ANDWR 	76H,1 			//005F 	02F6

		//;FT_62F21X_pwm.c: 152: if(pwm_colour_value == 0)
		LDR 	76H,1 			//0060 	08F6
		BTSS 	STATUS,2 		//0061 	1D03
		LJUMP 	65H 			//0062 	3865

		//;FT_62F21X_pwm.c: 153: {
		//;FT_62F21X_pwm.c: 154: PWM1_RED();
		LCALL 	CDH 			//0063 	30CD
		ORG		0064H

		//;FT_62F21X_pwm.c: 155: }
		LJUMP 	74H 			//0064 	3874

		//;FT_62F21X_pwm.c: 156: else if(pwm_colour_value == 1)
		DECRSZ 	76H,0 		//0065 	0E76
		LJUMP 	69H 			//0066 	3869

		//;FT_62F21X_pwm.c: 157: {
		//;FT_62F21X_pwm.c: 158: PWM1_GREEN();
		LCALL 	DFH 			//0067 	30DF

		//;FT_62F21X_pwm.c: 159: }
		LJUMP 	74H 			//0068 	3874

		//;FT_62F21X_pwm.c: 160: else if(pwm_colour_value == 2)
		LDR 	76H,0 			//0069 	0876
		XORWI 	2H 			//006A 	2602
		BTSS 	STATUS,2 		//006B 	1D03
		ORG		006CH
		LJUMP 	6FH 			//006C 	386F

		//;FT_62F21X_pwm.c: 161: {
		//;FT_62F21X_pwm.c: 162: PWM1_BLUE();
		LCALL 	E7H 			//006D 	30E7

		//;FT_62F21X_pwm.c: 163: }
		LJUMP 	74H 			//006E 	3874

		//;FT_62F21X_pwm.c: 164: else if(pwm_colour_value == 3)
		LDR 	76H,0 			//006F 	0876
		XORWI 	3H 			//0070 	2603
		BTSS 	STATUS,2 		//0071 	1D03
		LJUMP 	74H 			//0072 	3874

		//;FT_62F21X_pwm.c: 165: {
		//;FT_62F21X_pwm.c: 166: PWM1_WHITE();
		LCALL 	C4H 			//0073 	30C4
		ORG		0074H

		//;FT_62F21X_pwm.c: 167: }
		//;FT_62F21X_pwm.c: 168: }
		//;FT_62F21X_pwm.c: 169: if(pwm_rate_value <=100)
		LDWI 	65H 			//0074 	2A65
		SUBWR 	77H,0 			//0075 	0C77

		//;FT_62F21X_pwm.c: 170: {
		//;FT_62F21X_pwm.c: 171: P1ADTL = pwm_rate_value;
		LDR 	77H,0 			//0076 	0877
		BTSC 	STATUS,0 		//0077 	1403
		LJUMP 	7CH 			//0078 	387C
		BCR 	STATUS,5 		//0079 	1283
		STR 	EH 			//007A 	018E

		//;FT_62F21X_pwm.c: 172: }
		RET		 					//007B 	0004
		ORG		007CH

		//;FT_62F21X_pwm.c: 173: else
		//;FT_62F21X_pwm.c: 174: {
		//;FT_62F21X_pwm.c: 175: P1ADTL = 200 - pwm_rate_value;
		SUBWI 	C8H 			//007C 	28C8
		BCR 	STATUS,5 		//007D 	1283
		STR 	EH 			//007E 	018E
		RET		 					//007F 	0004

		//;FT_62F21X_pwm.c: 15: T2CON0=0B00000001;
		LDWI 	1H 			//0080 	2A01
		BCR 	STATUS,5 		//0081 	1283
		STR 	12H 			//0082 	0192

		//;FT_62F21X_pwm.c: 21: T2CON1=0B00000000;
		BSR 	STATUS,5 		//0083 	1A83
		ORG		0084H
		CLRR 	1EH 			//0084 	011E

		//;FT_62F21X_pwm.c: 26: TMR2H=0;
		BCR 	STATUS,5 		//0085 	1283
		CLRR 	13H 			//0086 	0113

		//;FT_62F21X_pwm.c: 27: TMR2L=100;
		LDWI 	64H 			//0087 	2A64
		STR 	11H 			//0088 	0191

		//;FT_62F21X_pwm.c: 29: PR2H=0;
		BSR 	STATUS,5 		//0089 	1A83
		CLRR 	12H 			//008A 	0112

		//;FT_62F21X_pwm.c: 30: PR2L=100;
		STR 	11H 			//008B 	0191
		ORG		008CH

		//;FT_62F21X_pwm.c: 31: P1ADTH=0;
		BCR 	STATUS,5 		//008C 	1283
		CLRR 	14H 			//008D 	0114

		//;FT_62F21X_pwm.c: 34: P1POL=0B00000000;
		BSR 	STATUS,5 		//008E 	1A83
		CLRR 	19H 			//008F 	0119

		//;FT_62F21X_pwm.c: 41: P1CON=0B00000000;
		BCR 	STATUS,5 		//0090 	1283
		CLRR 	16H 			//0091 	0116

		//;FT_62F21X_pwm.c: 48: P1AUX=0B00000000;
		CLRR 	1EH 			//0092 	011E

		//;FT_62F21X_pwm.c: 59: PWM1_BLUE();
		LCALL 	E7H 			//0093 	30E7
		ORG		0094H

		//;FT_62F21X_pwm.c: 62: TMR2IF=0;
		BCR 	CH,1 			//0094 	108C

		//;FT_62F21X_pwm.c: 63: TMR2IE=1;
		BSR 	STATUS,5 		//0095 	1A83
		BSR 	CH,1 			//0096 	188C

		//;FT_62F21X_pwm.c: 64: TMR2ON=1;
		BCR 	STATUS,5 		//0097 	1283
		BSR 	12H,2 			//0098 	1912

		//;FT_62F21X_pwm.c: 65: PEIE=1;
		BSR 	INTCON,6 		//0099 	1B0B

		//;FT_62F21X_pwm.c: 66: GIE=1;
		BSR 	INTCON,7 		//009A 	1B8B
		RET		 					//009B 	0004
		ORG		009CH

		//;TEST_FT62F21X_SLEEP.C: 106: OSCCON = 0X00|0X70|0X00;
		LDWI 	70H 			//009C 	2A70
		BSR 	STATUS,5 		//009D 	1A83
		STR 	FH 			//009E 	018F

		//;TEST_FT62F21X_SLEEP.C: 109: INTCON = 0;
		CLRR 	INTCON 			//009F 	010B

		//;TEST_FT62F21X_SLEEP.C: 111: PORTA = 0B00000000;
		BCR 	STATUS,5 		//00A0 	1283
		CLRR 	5H 			//00A1 	0105

		//;TEST_FT62F21X_SLEEP.C: 112: TRISA = 0B00000000;
		BSR 	STATUS,5 		//00A2 	1A83
		CLRR 	5H 			//00A3 	0105
		ORG		00A4H

		//;TEST_FT62F21X_SLEEP.C: 113: WPUA = 0B00000000;
		CLRR 	15H 			//00A4 	0115

		//;TEST_FT62F21X_SLEEP.C: 115: OPTION = 0B00001000;
		LDWI 	8H 			//00A5 	2A08
		STR 	1H 			//00A6 	0181

		//;TEST_FT62F21X_SLEEP.C: 117: MSCON = 0B00000000;
		BCR 	STATUS,5 		//00A7 	1283
		CLRR 	1BH 			//00A8 	011B
		RET		 					//00A9 	0004
		LDWI 	1H 			//00AA 	2A01
		CLRR 	70H 			//00AB 	0170
		ORG		00ACH
		CLRR 	71H 			//00AC 	0171
		CLRR 	72H 			//00AD 	0172
		CLRR 	73H 			//00AE 	0173
		CLRR 	74H 			//00AF 	0174
		CLRR 	75H 			//00B0 	0175
		CLRR 	76H 			//00B1 	0176
		CLRR 	77H 			//00B2 	0177
		CLRR 	78H 			//00B3 	0178
		ORG		00B4H
		STR 	7CH 			//00B4 	01FC
		CLRR 	STATUS 			//00B5 	0103
		LJUMP 	B7H 			//00B6 	38B7

		//;TEST_FT62F21X_SLEEP.C: 175: POWER_INITIAL();
		LCALL 	9CH 			//00B7 	309C

		//;TEST_FT62F21X_SLEEP.C: 176: TIMER0_INITIAL();
		LCALL 	EFH 			//00B8 	30EF

		//;TEST_FT62F21X_SLEEP.C: 177: PA3_Level_Change_INITIAL();
		LCALL 	D6H 			//00B9 	30D6

		//;TEST_FT62F21X_SLEEP.C: 178: PWM1_INITIAL();
		LCALL 	80H 			//00BA 	3080
		CLRWDT	 			//00BB 	0001
		ORG		00BCH

		//;TEST_FT62F21X_SLEEP.C: 183: if(time_15ms_cnt > 15)
		LDWI 	10H 			//00BC 	2A10
		SUBWR 	78H,0 			//00BD 	0C78
		BTSS 	STATUS,0 		//00BE 	1C03
		LJUMP 	BBH 			//00BF 	38BB

		//;TEST_FT62F21X_SLEEP.C: 184: {
		//;TEST_FT62F21X_SLEEP.C: 185: time_15ms_cnt = 0;
		CLRR 	78H 			//00C0 	0178

		//;TEST_FT62F21X_SLEEP.C: 186: pwm_rate_value++;
		INCR	77H,1 			//00C1 	09F7

		//;TEST_FT62F21X_SLEEP.C: 187: PWM1_RATE_CHANGE();
		LCALL 	58H 			//00C2 	3058
		LJUMP 	BBH 			//00C3 	38BB
		ORG		00C4H

		//;FT_62F21X_pwm.c: 129: P1ADTL=0;
		BCR 	STATUS,5 		//00C4 	1283
		CLRR 	EH 			//00C5 	010E

		//;FT_62F21X_pwm.c: 131: P1OE=0B00100000;
		LDWI 	20H 			//00C6 	2A20
		BSR 	STATUS,5 		//00C7 	1A83
		STR 	10H 			//00C8 	0190

		//;FT_62F21X_pwm.c: 139: P1BR1=0B00000100;
		LDWI 	4H 			//00C9 	2A04
		BCR 	STATUS,5 		//00CA 	1283
		STR 	19H 			//00CB 	0199
		ORG		00CCH
		RET		 					//00CC 	0004

		//;FT_62F21X_pwm.c: 73: P1ADTL=0;
		BCR 	STATUS,5 		//00CD 	1283
		CLRR 	EH 			//00CE 	010E

		//;FT_62F21X_pwm.c: 75: P1OE=0B10000000;
		LDWI 	80H 			//00CF 	2A80
		BSR 	STATUS,5 		//00D0 	1A83
		STR 	10H 			//00D1 	0190

		//;FT_62F21X_pwm.c: 83: P1BR1=0B00001000;
		LDWI 	8H 			//00D2 	2A08
		BCR 	STATUS,5 		//00D3 	1283
		ORG		00D4H
		STR 	19H 			//00D4 	0199
		RET		 					//00D5 	0004

		//;FT_62F21x_IR.c: 38: TRISA3 =1;
		BSR 	STATUS,5 		//00D6 	1A83
		BSR 	5H,3 			//00D7 	1985

		//;FT_62F21x_IR.c: 39: ReadAPin = PORTA;
		BCR 	STATUS,5 		//00D8 	1283
		LDR 	5H,0 			//00D9 	0805

		//;FT_62F21x_IR.c: 40: PAIF =0;
		BCR 	INTCON,0 		//00DA 	100B

		//;FT_62F21x_IR.c: 41: IOCA3 =1;
		BSR 	STATUS,5 		//00DB 	1A83
		ORG		00DCH
		BSR 	16H,3 			//00DC 	1996

		//;FT_62F21x_IR.c: 42: PAIE =1;
		BSR 	INTCON,3 		//00DD 	198B
		RET		 					//00DE 	0004

		//;FT_62F21X_pwm.c: 92: P1ADTL=0;
		BCR 	STATUS,5 		//00DF 	1283
		CLRR 	EH 			//00E0 	010E

		//;FT_62F21X_pwm.c: 94: P1OE=0B00100000;
		LDWI 	20H 			//00E1 	2A20
		BSR 	STATUS,5 		//00E2 	1A83
		STR 	10H 			//00E3 	0190
		ORG		00E4H

		//;FT_62F21X_pwm.c: 102: P1BR1=0B00000000;
		BCR 	STATUS,5 		//00E4 	1283
		CLRR 	19H 			//00E5 	0119
		RET		 					//00E6 	0004

		//;FT_62F21X_pwm.c: 111: P1ADTL=0;
		BCR 	STATUS,5 		//00E7 	1283
		CLRR 	EH 			//00E8 	010E

		//;FT_62F21X_pwm.c: 113: P1OE=0B10000000;
		LDWI 	80H 			//00E9 	2A80
		BSR 	STATUS,5 		//00EA 	1A83
		STR 	10H 			//00EB 	0190
		ORG		00ECH

		//;FT_62F21X_pwm.c: 121: P1BR1=0B00000000;
		BCR 	STATUS,5 		//00EC 	1283
		CLRR 	19H 			//00ED 	0119
		RET		 					//00EE 	0004

		//;FT_62F21x_IR.c: 20: OPTION = 0B00000011;
		LDWI 	3H 			//00EF 	2A03
		BSR 	STATUS,5 		//00F0 	1A83
		STR 	1H 			//00F1 	0181

		//;FT_62F21x_IR.c: 27: TMR0 = 140;
		LDWI 	8CH 			//00F2 	2A8C
		BCR 	STATUS,5 		//00F3 	1283
		ORG		00F4H
		STR 	1H 			//00F4 	0181

		//;FT_62F21x_IR.c: 28: T0IF = 0;
		BCR 	INTCON,2 		//00F5 	110B
		RET		 					//00F6 	0004
			END
