//Deviec:FT60F21X
//-----------------------Variable---------------------------------
		_IRbitNum		EQU		48H
		_IRbitTime		EQU		49H
		_IRDataTimer		EQU		40H
		_bitdata		EQU		61H
		_ReceiveFinish		EQU		4AH
		_ft_user_pwm_mode		EQU		4CH
		_ft_user_set_mode		EQU		4DH
		_pwm_rate_value		EQU		50H
		_pwm_colour_value		EQU		7AH
		_jump_led_rate		EQU		78H
		_power_off_mode_backup		EQU		62H
		_set_time_mode_backup		EQU		79H
		_power_off_flag		EQU		4FH
		_auto_power_off_timer_L		EQU		4BH
		_auto_power_off_timer_H		EQU		44H
		_time_15ms_cnt		EQU		52H
		_time_2s_cnt		EQU		53H
		_key_release		EQU		4EH
		_temp_mode		EQU		51H
//-----------------------Variable END---------------------------------
		ORG		0000H
		LJUMP 	0CH 			//0000 	380C
		ORG		0004H
		STR 	7EH 			//0004 	01FE
		SWAPR 	STATUS,0 		//0005 	0703
		STR 	70H 			//0006 	01F0
		LDR 	FSR,0 			//0007 	0804
		STR 	71H 			//0008 	01F1
		LDR 	PCLATH,0 		//0009 	080A
		STR 	72H 			//000A 	01F2
		LJUMP 	195H 			//000B 	3995
		ORG		000CH
		LJUMP 	348H 			//000C 	3B48

		//;FT_62F21X_pwm.c: 510: if(power_off_flag == 1)
		DECRSZ 	4FH,0 		//000D 	0E4F
		LJUMP 	CFH 			//000E 	38CF

		//;FT_62F21X_pwm.c: 511: {
		//;FT_62F21X_pwm.c: 512: if(ft_user_set_mode != 0x11)
		LDR 	4DH,0 			//000F 	084D
		XORWI 	11H 			//0010 	2611
		BTSS 	STATUS,2 		//0011 	1D03
		RET		 					//0012 	0004
		LJUMP 	CFH 			//0013 	38CF
		ORG		0014H

		//;FT_62F21X_pwm.c: 521: if(jump_led_rate > 20)
		LDWI 	15H 			//0014 	2A15
		SUBWR 	78H,0 			//0015 	0C78
		BTSS 	STATUS,0 		//0016 	1C03
		LJUMP 	1AH 			//0017 	381A

		//;FT_62F21X_pwm.c: 522: {
		//;FT_62F21X_pwm.c: 523: jump_led_rate = jump_led_rate - 20;
		LDWI 	ECH 			//0018 	2AEC
		ADDWR 	78H,1 			//0019 	0BF8

		//;FT_62F21X_pwm.c: 524: }
		//;FT_62F21X_pwm.c: 525: if(ft_user_pwm_mode != 0)
		LDR 	4CH,0 			//001A 	084C
		BTSC 	STATUS,2 		//001B 	1503
		ORG		001CH
		RET		 					//001C 	0004

		//;FT_62F21X_pwm.c: 526: {
		//;FT_62F21X_pwm.c: 527: P1CDTL=jump_led_rate;
		LDR 	78H,0 			//001D 	0878
		STR 	10H 			//001E 	0190

		//;FT_62F21X_pwm.c: 528: P1DDTL=jump_led_rate;
		LDR 	78H,0 			//001F 	0878
		STR 	8H 			//0020 	0188
		RET		 					//0021 	0004

		//;FT_62F21X_pwm.c: 534: if(jump_led_rate < 100)
		LDWI 	64H 			//0022 	2A64
		SUBWR 	78H,0 			//0023 	0C78
		ORG		0024H
		BTSC 	STATUS,0 		//0024 	1403
		LJUMP 	1AH 			//0025 	381A

		//;FT_62F21X_pwm.c: 535: {
		//;FT_62F21X_pwm.c: 536: jump_led_rate = jump_led_rate + 20;
		LDWI 	14H 			//0026 	2A14
		LJUMP 	19H 			//0027 	3819

		//;FT_62F21X_pwm.c: 537: }
		//;FT_62F21X_pwm.c: 538: if(ft_user_pwm_mode != 0)
		LDR 	4DH,0 			//0028 	084D
		ADDWI 	F4H 			//0029 	27F4
		STR 	44H 			//002A 	01C4
		LDWI 	FFH 			//002B 	2AFF
		ORG		002CH
		BTSC 	STATUS,0 		//002C 	1403
		LDWI 	0H 			//002D 	2A00
		STR 	45H 			//002E 	01C5
		CLRR 	46H 			//002F 	0146
		BTSC 	45H,7 			//0030 	17C5
		DECR 	46H,1 			//0031 	0DC6
		LDR 	46H,0 			//0032 	0846
		STR 	47H 			//0033 	01C7
		ORG		0034H

		//;FT_62F21X_pwm.c: 550: auto_power_off_timer_H = auto_power_off_timer_H*0x180000;
		LDWI 	18H 			//0034 	2A18
		CLRR 	57H 			//0035 	0157
		STR 	56H 			//0036 	01D6
		CLRR 	55H 			//0037 	0155
		CLRR 	54H 			//0038 	0154
		LDR 	47H,0 			//0039 	0847
		STR 	5BH 			//003A 	01DB
		LDR 	46H,0 			//003B 	0846
		ORG		003CH
		STR 	5AH 			//003C 	01DA
		LDR 	45H,0 			//003D 	0845
		STR 	59H 			//003E 	01D9
		LDR 	44H,0 			//003F 	0844
		STR 	58H 			//0040 	01D8
		LCALL 	25EH 			//0041 	325E
		LDR 	57H,0 			//0042 	0857
		STR 	47H 			//0043 	01C7
		ORG		0044H
		LDR 	56H,0 			//0044 	0856
		STR 	46H 			//0045 	01C6
		LDR 	55H,0 			//0046 	0855
		STR 	45H 			//0047 	01C5
		LDR 	54H,0 			//0048 	0854
		STR 	44H 			//0049 	01C4

		//;FT_62F21X_pwm.c: 551: P1OE=0B00000000;
		//;FT_62F21X_pwm.c: 552: P1BR1=0B00000000;
		//;FT_62F21X_pwm.c: 553: DelayMs(50);
		LCALL 	E9H 			//004A 	30E9
		LCALL 	358H 			//004B 	3358
		ORG		004CH

		//;FT_62F21X_pwm.c: 554: P1CDTL=100;
		//;FT_62F21X_pwm.c: 555: P1DDTL=100;
		//;FT_62F21X_pwm.c: 556: P1OE=0B10100000;
		//;FT_62F21X_pwm.c: 557: P1BR1=0B00001100;
		//;FT_62F21X_pwm.c: 558: DelayMs(50);
		LCALL 	DEH 			//004C 	30DE
		LCALL 	358H 			//004D 	3358

		//;FT_62F21X_pwm.c: 559: P1OE=0B00000000;
		//;FT_62F21X_pwm.c: 560: P1BR1=0B00000000;
		//;FT_62F21X_pwm.c: 561: DelayMs(50);
		LCALL 	E9H 			//004E 	30E9
		LCALL 	358H 			//004F 	3358

		//;FT_62F21X_pwm.c: 562: P1CDTL=100;
		//;FT_62F21X_pwm.c: 563: P1DDTL=100;
		//;FT_62F21X_pwm.c: 564: P1OE=0B10100000;
		//;FT_62F21X_pwm.c: 565: P1BR1=0B00001100;
		//;FT_62F21X_pwm.c: 566: DelayMs(50);
		LCALL 	DEH 			//0050 	30DE
		LCALL 	358H 			//0051 	3358

		//;FT_62F21X_pwm.c: 567: P1OE=0B00000000;
		//;FT_62F21X_pwm.c: 568: P1BR1=0B00000000;
		//;FT_62F21X_pwm.c: 569: DelayMs(50);
		LCALL 	E9H 			//0052 	30E9
		LCALL 	358H 			//0053 	3358
		ORG		0054H

		//;FT_62F21X_pwm.c: 570: if(set_time_mode_backup == 0x00)
		LDR 	79H,1 			//0054 	08F9
		BTSC 	STATUS,2 		//0055 	1503
		LJUMP 	60H 			//0056 	3860
		LJUMP 	68H 			//0057 	3868

		//;FT_62F21X_pwm.c: 575: PWM1_RED();
		LCALL 	3B2H 			//0058 	33B2

		//;FT_62F21X_pwm.c: 576: break;
		LJUMP 	B1H 			//0059 	38B1

		//;FT_62F21X_pwm.c: 579: PWM1_GREEN();
		LCALL 	3A9H 			//005A 	33A9

		//;FT_62F21X_pwm.c: 580: break;
		LJUMP 	B1H 			//005B 	38B1
		ORG		005CH

		//;FT_62F21X_pwm.c: 583: PWM1_BLUE();
		LCALL 	3A0H 			//005C 	33A0

		//;FT_62F21X_pwm.c: 584: break;
		LJUMP 	B1H 			//005D 	38B1

		//;FT_62F21X_pwm.c: 587: PWM1_WHITE();
		LCALL 	397H 			//005E 	3397

		//;FT_62F21X_pwm.c: 588: break;
		LJUMP 	B1H 			//005F 	38B1
		LCALL 	259H 			//0060 	3259
		BTSC 	STATUS,0 		//0061 	1403
		LJUMP 	B1H 			//0062 	38B1
		LDWI 	3H 			//0063 	2A03
		ORG		0064H
		STR 	PCLATH 			//0064 	018A
		LDWI 	E8H 			//0065 	2AE8
		ADDWR 	FSR,0 			//0066 	0B04
		STR 	PCL 			//0067 	0182

		//;FT_62F21X_pwm.c: 596: else if(set_time_mode_backup == 0x05)
		LDR 	79H,0 			//0068 	0879
		XORWI 	5H 			//0069 	2605
		BTSC 	STATUS,2 		//006A 	1503
		LJUMP 	7BH 			//006B 	387B
		ORG		006CH
		LJUMP 	83H 			//006C 	3883

		//;FT_62F21X_pwm.c: 602: P1OE=0B00000000;
		BSR 	STATUS,5 		//006D 	1A83
		CLRR 	10H 			//006E 	0110
		LJUMP 	8DH 			//006F 	388D

		//;FT_62F21X_pwm.c: 605: break;
		//;FT_62F21X_pwm.c: 603: P1BR1=0B00001000;
		//;FT_62F21X_pwm.c: 609: P1OE=0B00100000;
		LDWI 	20H 			//0070 	2A20
		BSR 	STATUS,5 		//0071 	1A83
		STR 	10H 			//0072 	0190

		//;FT_62F21X_pwm.c: 610: P1BR1=0B00000000;
		BCR 	STATUS,5 		//0073 	1283
		ORG		0074H
		CLRR 	19H 			//0074 	0119

		//;FT_62F21X_pwm.c: 612: break;
		LJUMP 	B1H 			//0075 	38B1

		//;FT_62F21X_pwm.c: 615: P1OE=0B10000000;
		LDWI 	80H 			//0076 	2A80
		LJUMP 	71H 			//0077 	3871

		//;FT_62F21X_pwm.c: 620: P1OE=0B00000000;
		BSR 	STATUS,5 		//0078 	1A83
		CLRR 	10H 			//0079 	0110
		LJUMP 	9AH 			//007A 	389A

		//;FT_62F21X_pwm.c: 622: break;
		//;FT_62F21X_pwm.c: 621: P1BR1=0B00000100;
		LCALL 	259H 			//007B 	3259
		ORG		007CH
		BTSC 	STATUS,0 		//007C 	1403
		LJUMP 	B1H 			//007D 	38B1
		LDWI 	3H 			//007E 	2A03
		STR 	PCLATH 			//007F 	018A
		LDWI 	ECH 			//0080 	2AEC
		ADDWR 	FSR,0 			//0081 	0B04
		STR 	PCL 			//0082 	0182

		//;FT_62F21X_pwm.c: 629: else if(set_time_mode_backup == 0x0A)
		LDR 	79H,0 			//0083 	0879
		ORG		0084H
		XORWI 	AH 			//0084 	260A
		BTSC 	STATUS,2 		//0085 	1503
		LJUMP 	9EH 			//0086 	389E
		LJUMP 	A9H 			//0087 	38A9

		//;FT_62F21X_pwm.c: 634: P1OE=0B00100000;
		LDWI 	20H 			//0088 	2A20
		LJUMP 	8BH 			//0089 	388B

		//;FT_62F21X_pwm.c: 636: break;
		//;FT_62F21X_pwm.c: 635: P1BR1=0B00001000;
		//;FT_62F21X_pwm.c: 639: P1OE=0B10000000;
		LDWI 	80H 			//008A 	2A80
		BSR 	STATUS,5 		//008B 	1A83
		ORG		008CH
		STR 	10H 			//008C 	0190

		//;FT_62F21X_pwm.c: 640: P1BR1=0B00001000;
		LDWI 	8H 			//008D 	2A08
		LJUMP 	9BH 			//008E 	389B

		//;FT_62F21X_pwm.c: 642: break;
		//;FT_62F21X_pwm.c: 645: P1OE=0B00000000;
		BSR 	STATUS,5 		//008F 	1A83
		CLRR 	10H 			//0090 	0110

		//;FT_62F21X_pwm.c: 646: P1BR1=0B00001100;
		LDWI 	CH 			//0091 	2A0C
		LJUMP 	9BH 			//0092 	389B

		//;FT_62F21X_pwm.c: 648: break;
		//;FT_62F21X_pwm.c: 651: P1OE=0B10100000;
		LDWI 	A0H 			//0093 	2AA0
		ORG		0094H
		LJUMP 	71H 			//0094 	3871

		//;FT_62F21X_pwm.c: 656: P1OE=0B00100000;
		LDWI 	20H 			//0095 	2A20
		LJUMP 	98H 			//0096 	3898

		//;FT_62F21X_pwm.c: 658: break;
		//;FT_62F21X_pwm.c: 657: P1BR1=0B00000100;
		//;FT_62F21X_pwm.c: 661: P1OE=0B10000000;
		LDWI 	80H 			//0097 	2A80
		BSR 	STATUS,5 		//0098 	1A83
		STR 	10H 			//0099 	0190

		//;FT_62F21X_pwm.c: 662: P1BR1=0B00000100;
		LDWI 	4H 			//009A 	2A04
		BCR 	STATUS,5 		//009B 	1283
		ORG		009CH
		STR 	19H 			//009C 	0199

		//;FT_62F21X_pwm.c: 663: break;
		LJUMP 	B1H 			//009D 	38B1
		LDR 	7AH,0 			//009E 	087A
		STR 	FSR 			//009F 	0184
		LDWI 	6H 			//00A0 	2A06
		SUBWR 	FSR,0 			//00A1 	0C04
		BTSC 	STATUS,0 		//00A2 	1403
		LJUMP 	B1H 			//00A3 	38B1
		ORG		00A4H
		LDWI 	3H 			//00A4 	2A03
		STR 	PCLATH 			//00A5 	018A
		LDWI 	DCH 			//00A6 	2ADC
		ADDWR 	FSR,0 			//00A7 	0B04
		STR 	PCL 			//00A8 	0182

		//;FT_62F21X_pwm.c: 670: else if(set_time_mode_backup != 0xff)
		LDR 	79H,0 			//00A9 	0879
		XORWI 	FFH 			//00AA 	26FF
		BTSC 	STATUS,2 		//00AB 	1503
		ORG		00ACH
		LJUMP 	B1H 			//00AC 	38B1

		//;FT_62F21X_pwm.c: 671: {
		//;FT_62F21X_pwm.c: 672: ft_user_pwm_mode = set_time_mode_backup;
		LDR 	79H,0 			//00AD 	0879
		BCR 	STATUS,5 		//00AE 	1283
		STR 	4CH 			//00AF 	01CC

		//;FT_62F21X_pwm.c: 673: PWM_MODE_REFRESH();
		LCALL 	1E4H 			//00B0 	31E4

		//;FT_62F21X_pwm.c: 674: }
		//;FT_62F21X_pwm.c: 675: power_off_mode_backup = ft_user_pwm_mode;
		BCR 	STATUS,5 		//00B1 	1283
		LDR 	4CH,0 			//00B2 	084C
		STR 	62H 			//00B3 	01E2
		ORG		00B4H

		//;FT_62F21X_pwm.c: 676: break;
		RET		 					//00B4 	0004
		LDWI 	64H 			//00B5 	2A64

		//;FT_62F21X_pwm.c: 679: power_off_flag = 0;
		CLRR 	4FH 			//00B6 	014F

		//;FT_62F21X_pwm.c: 680: jump_led_rate = 100;
		STR 	78H 			//00B7 	01F8

		//;FT_62F21X_pwm.c: 681: if(power_off_mode_backup < 0x0B)
		LDWI 	BH 			//00B8 	2A0B
		SUBWR 	62H,0 			//00B9 	0C62
		BTSC 	STATUS,0 		//00BA 	1403
		LJUMP 	BFH 			//00BB 	38BF
		ORG		00BCH

		//;FT_62F21X_pwm.c: 682: {
		//;FT_62F21X_pwm.c: 683: ft_user_pwm_mode = power_off_mode_backup;
		LDR 	62H,0 			//00BC 	0862
		STR 	4CH 			//00BD 	01CC

		//;FT_62F21X_pwm.c: 685: }
		LJUMP 	C0H 			//00BE 	38C0

		//;FT_62F21X_pwm.c: 686: else
		//;FT_62F21X_pwm.c: 687: {
		//;FT_62F21X_pwm.c: 688: ft_user_pwm_mode = 0;
		CLRR 	4CH 			//00BF 	014C

		//;FT_62F21X_pwm.c: 684: PWM_MODE_REFRESH();
		LCALL 	1E4H 			//00C0 	31E4

		//;FT_62F21X_pwm.c: 690: }
		//;FT_62F21X_pwm.c: 691: power_off_mode_backup = 0xff;
		LDWI 	FFH 			//00C1 	2AFF
		STR 	62H 			//00C2 	01E2

		//;FT_62F21X_pwm.c: 692: break;
		RET		 					//00C3 	0004
		ORG		00C4H

		//;FT_62F21X_pwm.c: 695: P1OE=0B00000000;
		BSR 	STATUS,5 		//00C4 	1A83
		CLRR 	10H 			//00C5 	0110

		//;FT_62F21X_pwm.c: 696: P1BR1=0B00000000;
		BCR 	STATUS,5 		//00C6 	1283
		CLRR 	19H 			//00C7 	0119

		//;FT_62F21X_pwm.c: 697: power_off_flag = 1;
		CLRR 	4FH 			//00C8 	014F
		INCR	4FH,1 			//00C9 	09CF

		//;FT_62F21X_pwm.c: 698: auto_power_off_timer_H = 0;
		CLRR 	44H 			//00CA 	0144
		CLRR 	45H 			//00CB 	0145
		ORG		00CCH
		CLRR 	46H 			//00CC 	0146
		CLRR 	47H 			//00CD 	0147
		LJUMP 	B1H 			//00CE 	38B1
		LDR 	4DH,0 			//00CF 	084D
		ADDWI 	F5H 			//00D0 	27F5
		BTSS 	STATUS,0 		//00D1 	1C03
		RET		 					//00D2 	0004
		STR 	FSR 			//00D3 	0184
		ORG		00D4H
		LDWI 	8H 			//00D4 	2A08
		SUBWR 	FSR,0 			//00D5 	0C04
		BTSC 	STATUS,0 		//00D6 	1403
		RET		 					//00D7 	0004
		LDWI 	3H 			//00D8 	2A03
		STR 	PCLATH 			//00D9 	018A
		LDWI 	CCH 			//00DA 	2ACC
		ADDWR 	FSR,0 			//00DB 	0B04
		ORG		00DCH
		STR 	PCL 			//00DC 	0182
		RET		 					//00DD 	0004
		LDWI 	64H 			//00DE 	2A64
		BCR 	STATUS,5 		//00DF 	1283
		STR 	10H 			//00E0 	0190
		STR 	8H 			//00E1 	0188
		LDWI 	A0H 			//00E2 	2AA0
		BSR 	STATUS,5 		//00E3 	1A83
		ORG		00E4H
		STR 	10H 			//00E4 	0190
		LDWI 	CH 			//00E5 	2A0C
		BCR 	STATUS,5 		//00E6 	1283
		STR 	19H 			//00E7 	0199
		RETW 	32H 			//00E8 	2132
		BSR 	STATUS,5 		//00E9 	1A83
		CLRR 	10H 			//00EA 	0110
		BCR 	STATUS,5 		//00EB 	1283
		ORG		00ECH
		CLRR 	19H 			//00EC 	0119
		RETW 	32H 			//00ED 	2132

		//;TEST_FT62F21X_SLEEP.C: 163: POWER_INITIAL();
		LCALL 	368H 			//00EE 	3368

		//;TEST_FT62F21X_SLEEP.C: 164: TIMER0_INITIAL();
		LCALL 	3D4H 			//00EF 	33D4

		//;TEST_FT62F21X_SLEEP.C: 165: PA3_Level_Change_INITIAL();
		LCALL 	3BBH 			//00F0 	33BB

		//;TEST_FT62F21X_SLEEP.C: 166: PWM1_INITIAL();
		LCALL 	32EH 			//00F1 	332E
		CLRWDT	 			//00F2 	0001

		//;TEST_FT62F21X_SLEEP.C: 172: if(power_off_flag == 0)
		BCR 	STATUS,5 		//00F3 	1283
		ORG		00F4H
		LDR 	4FH,1 			//00F4 	08CF
		BTSS 	STATUS,2 		//00F5 	1D03
		LJUMP 	121H 			//00F6 	3921

		//;TEST_FT62F21X_SLEEP.C: 173: {
		//;TEST_FT62F21X_SLEEP.C: 174: if(ft_user_pwm_mode == 0)
		LDR 	4CH,1 			//00F7 	08CC
		BTSS 	STATUS,2 		//00F8 	1D03
		LJUMP 	101H 			//00F9 	3901

		//;TEST_FT62F21X_SLEEP.C: 175: {
		//;TEST_FT62F21X_SLEEP.C: 176: if(time_15ms_cnt > 150)
		LDWI 	97H 			//00FA 	2A97
		SUBWR 	52H,0 			//00FB 	0C52
		ORG		00FCH
		BTSS 	STATUS,0 		//00FC 	1C03
		LJUMP 	101H 			//00FD 	3901

		//;TEST_FT62F21X_SLEEP.C: 177: {
		//;TEST_FT62F21X_SLEEP.C: 178: time_15ms_cnt = 0;
		CLRR 	52H 			//00FE 	0152

		//;TEST_FT62F21X_SLEEP.C: 179: pwm_rate_value++;
		INCR	50H,1 			//00FF 	09D0

		//;TEST_FT62F21X_SLEEP.C: 180: PWM1_RATE_CHANGE();
		LCALL 	227H 			//0100 	3227

		//;TEST_FT62F21X_SLEEP.C: 181: }
		//;TEST_FT62F21X_SLEEP.C: 182: }
		//;TEST_FT62F21X_SLEEP.C: 183: if(ft_user_pwm_mode == 5)
		LDR 	4CH,0 			//0101 	084C
		XORWI 	5H 			//0102 	2605
		BTSS 	STATUS,2 		//0103 	1D03
		ORG		0104H
		LJUMP 	111H 			//0104 	3911

		//;TEST_FT62F21X_SLEEP.C: 184: {
		//;TEST_FT62F21X_SLEEP.C: 185: if(time_15ms_cnt>200)
		LDWI 	C9H 			//0105 	2AC9
		SUBWR 	52H,0 			//0106 	0C52
		BTSS 	STATUS,0 		//0107 	1C03
		LJUMP 	111H 			//0108 	3911
		LDWI 	65H 			//0109 	2A65

		//;TEST_FT62F21X_SLEEP.C: 186: {
		//;TEST_FT62F21X_SLEEP.C: 187: time_2s_cnt++;
		INCR	53H,1 			//010A 	09D3

		//;TEST_FT62F21X_SLEEP.C: 188: if(time_2s_cnt > 100)
		SUBWR 	53H,0 			//010B 	0C53
		ORG		010CH
		BTSS 	STATUS,0 		//010C 	1C03
		LJUMP 	110H 			//010D 	3910

		//;TEST_FT62F21X_SLEEP.C: 189: {
		//;TEST_FT62F21X_SLEEP.C: 190: time_2s_cnt = 0;
		CLRR 	53H 			//010E 	0153

		//;TEST_FT62F21X_SLEEP.C: 191: JUMP_MODE_CHANGE();
		LCALL 	2EEH 			//010F 	32EE

		//;TEST_FT62F21X_SLEEP.C: 192: }
		//;TEST_FT62F21X_SLEEP.C: 193: time_15ms_cnt = 0;
		CLRR 	52H 			//0110 	0152

		//;TEST_FT62F21X_SLEEP.C: 195: }
		//;TEST_FT62F21X_SLEEP.C: 196: }
		//;TEST_FT62F21X_SLEEP.C: 197: if(ft_user_pwm_mode == 0x0A)
		LDR 	4CH,0 			//0111 	084C
		XORWI 	AH 			//0112 	260A
		BTSS 	STATUS,2 		//0113 	1D03
		ORG		0114H
		LJUMP 	121H 			//0114 	3921

		//;TEST_FT62F21X_SLEEP.C: 198: {
		//;TEST_FT62F21X_SLEEP.C: 199: if(time_15ms_cnt>200)
		LDWI 	C9H 			//0115 	2AC9
		SUBWR 	52H,0 			//0116 	0C52
		BTSS 	STATUS,0 		//0117 	1C03
		LJUMP 	121H 			//0118 	3921
		LDWI 	65H 			//0119 	2A65

		//;TEST_FT62F21X_SLEEP.C: 200: {
		//;TEST_FT62F21X_SLEEP.C: 201: time_2s_cnt++;
		INCR	53H,1 			//011A 	09D3

		//;TEST_FT62F21X_SLEEP.C: 202: if(time_2s_cnt > 100)
		SUBWR 	53H,0 			//011B 	0C53
		ORG		011CH
		BTSS 	STATUS,0 		//011C 	1C03
		LJUMP 	120H 			//011D 	3920

		//;TEST_FT62F21X_SLEEP.C: 203: {
		//;TEST_FT62F21X_SLEEP.C: 204: time_2s_cnt = 0;
		CLRR 	53H 			//011E 	0153

		//;TEST_FT62F21X_SLEEP.C: 205: MIX_MODE_CHANGE();
		LCALL 	291H 			//011F 	3291

		//;TEST_FT62F21X_SLEEP.C: 206: }
		//;TEST_FT62F21X_SLEEP.C: 207: time_15ms_cnt = 0;
		CLRR 	52H 			//0120 	0152

		//;TEST_FT62F21X_SLEEP.C: 209: }
		//;TEST_FT62F21X_SLEEP.C: 210: }
		//;TEST_FT62F21X_SLEEP.C: 211: }
		//;TEST_FT62F21X_SLEEP.C: 213: if(auto_power_off_timer_H)
		LDR 	47H,0 			//0121 	0847
		IORWR 	46H,0 			//0122 	0346
		IORWR 	45H,0 			//0123 	0345
		ORG		0124H
		IORWR 	44H,0 			//0124 	0344
		BTSC 	STATUS,2 		//0125 	1503
		LJUMP 	147H 			//0126 	3947

		//;TEST_FT62F21X_SLEEP.C: 214: {
		//;TEST_FT62F21X_SLEEP.C: 215: if(auto_power_off_timer_L > 100)
		LDWI 	65H 			//0127 	2A65
		SUBWR 	4BH,0 			//0128 	0C4B
		BTSS 	STATUS,0 		//0129 	1C03
		LJUMP 	147H 			//012A 	3947
		LDWI 	1H 			//012B 	2A01
		ORG		012CH

		//;TEST_FT62F21X_SLEEP.C: 216: {
		//;TEST_FT62F21X_SLEEP.C: 217: auto_power_off_timer_L = 0;
		CLRR 	4BH 			//012C 	014B

		//;TEST_FT62F21X_SLEEP.C: 218: auto_power_off_timer_H--;
		STR 	5CH 			//012D 	01DC
		CLRR 	5DH 			//012E 	015D
		CLRR 	5EH 			//012F 	015E
		CLRR 	5FH 			//0130 	015F
		SUBWR 	44H,1 			//0131 	0CC4
		LDR 	5DH,0 			//0132 	085D
		BTSS 	STATUS,0 		//0133 	1C03
		ORG		0134H
		INCRSZ 	5DH,0 		//0134 	0A5D
		SUBWR 	45H,1 			//0135 	0CC5
		LDR 	5EH,0 			//0136 	085E
		BTSS 	STATUS,0 		//0137 	1C03
		INCRSZ 	5EH,0 		//0138 	0A5E
		SUBWR 	46H,1 			//0139 	0CC6
		LDR 	5FH,0 			//013A 	085F
		BTSS 	STATUS,0 		//013B 	1C03
		ORG		013CH
		INCRSZ 	5FH,0 		//013C 	0A5F
		SUBWR 	47H,1 			//013D 	0CC7

		//;TEST_FT62F21X_SLEEP.C: 219: if(!auto_power_off_timer_H)
		LDR 	47H,0 			//013E 	0847
		IORWR 	46H,0 			//013F 	0346
		IORWR 	45H,0 			//0140 	0345
		IORWR 	44H,0 			//0141 	0344
		BTSS 	STATUS,2 		//0142 	1D03
		LJUMP 	147H 			//0143 	3947
		ORG		0144H

		//;TEST_FT62F21X_SLEEP.C: 220: {
		//;TEST_FT62F21X_SLEEP.C: 221: ft_user_set_mode = 0x12;
		LDWI 	12H 			//0144 	2A12
		STR 	4DH 			//0145 	01CD

		//;TEST_FT62F21X_SLEEP.C: 222: SET_MODE_REFRESH();
		LCALL 	DH 			//0146 	300D

		//;TEST_FT62F21X_SLEEP.C: 223: }
		//;TEST_FT62F21X_SLEEP.C: 224: }
		//;TEST_FT62F21X_SLEEP.C: 225: }
		//;TEST_FT62F21X_SLEEP.C: 227: if(RA4)
		BTSS 	5H,4 			//0147 	1E05
		LJUMP 	14BH 			//0148 	394B

		//;TEST_FT62F21X_SLEEP.C: 228: {
		//;TEST_FT62F21X_SLEEP.C: 229: key_release = 0;
		CLRR 	4EH 			//0149 	014E

		//;TEST_FT62F21X_SLEEP.C: 230: }
		LJUMP 	15CH 			//014A 	395C

		//;TEST_FT62F21X_SLEEP.C: 231: else
		//;TEST_FT62F21X_SLEEP.C: 232: {
		//;TEST_FT62F21X_SLEEP.C: 233: if(key_release == 0)
		LDR 	4EH,1 			//014B 	08CE
		ORG		014CH
		BTSS 	STATUS,2 		//014C 	1D03
		LJUMP 	15AH 			//014D 	395A

		//;TEST_FT62F21X_SLEEP.C: 234: {
		//;TEST_FT62F21X_SLEEP.C: 236: DelayMs(1);
		LDWI 	1H 			//014E 	2A01
		LCALL 	358H 			//014F 	3358

		//;TEST_FT62F21X_SLEEP.C: 237: if(!RA4)
		BCR 	STATUS,5 		//0150 	1283
		BTSC 	5H,4 			//0151 	1605
		LJUMP 	15AH 			//0152 	395A

		//;TEST_FT62F21X_SLEEP.C: 238: {
		//;TEST_FT62F21X_SLEEP.C: 239: DelayMs(1);
		LDWI 	1H 			//0153 	2A01
		ORG		0154H
		LCALL 	358H 			//0154 	3358

		//;TEST_FT62F21X_SLEEP.C: 240: if(!RA4)
		BCR 	STATUS,5 		//0155 	1283
		BTSC 	5H,4 			//0156 	1605
		LJUMP 	15AH 			//0157 	395A

		//;TEST_FT62F21X_SLEEP.C: 241: {
		//;TEST_FT62F21X_SLEEP.C: 242: reset_led_status();
		LCALL 	3FCH 			//0158 	33FC

		//;TEST_FT62F21X_SLEEP.C: 243: PWM_MODE_CHANGE();
		LCALL 	377H 			//0159 	3377

		//;TEST_FT62F21X_SLEEP.C: 244: }
		//;TEST_FT62F21X_SLEEP.C: 246: }
		//;TEST_FT62F21X_SLEEP.C: 252: }
		//;TEST_FT62F21X_SLEEP.C: 253: key_release = 1;
		CLRR 	4EH 			//015A 	014E
		INCR	4EH,1 			//015B 	09CE
		ORG		015CH

		//;TEST_FT62F21X_SLEEP.C: 255: }
		//;TEST_FT62F21X_SLEEP.C: 257: if(ReceiveFinish)
		LDR 	4AH,0 			//015C 	084A
		BTSC 	STATUS,2 		//015D 	1503
		LJUMP 	F2H 			//015E 	38F2

		//;TEST_FT62F21X_SLEEP.C: 258: {
		//;TEST_FT62F21X_SLEEP.C: 259: unsigned char i;
		//;TEST_FT62F21X_SLEEP.C: 261: ReceiveFinish = 0;
		CLRR 	4AH 			//015F 	014A

		//;TEST_FT62F21X_SLEEP.C: 262: if(IRDataTimer[0] != 0x00 || IRDataTimer[1] != 0xFF)
		LDR 	40H,1 			//0160 	08C0
		BTSS 	STATUS,2 		//0161 	1D03
		LJUMP 	F2H 			//0162 	38F2
		LDR 	41H,0 			//0163 	0841
		ORG		0164H
		XORWI 	FFH 			//0164 	26FF
		BTSS 	STATUS,2 		//0165 	1D03
		LJUMP 	F2H 			//0166 	38F2

		//;TEST_FT62F21X_SLEEP.C: 265: }
		//;TEST_FT62F21X_SLEEP.C: 266: for(i = 0;i < 19;i++)
		CLRR 	60H 			//0167 	0160

		//;TEST_FT62F21X_SLEEP.C: 267: {
		//;TEST_FT62F21X_SLEEP.C: 268: if(ir_key_value[i*2] == IRDataTimer[3])
		BCR 	STATUS,0 		//0168 	1003
		RLR 	60H,0 			//0169 	0560
		ADDWI 	1H 			//016A 	2701
		STR 	FSR 			//016B 	0184
		ORG		016CH
		LCALL 	2C2H 			//016C 	32C2
		XORWR 	43H,0 			//016D 	0443
		BTSS 	STATUS,2 		//016E 	1D03
		LJUMP 	18FH 			//016F 	398F

		//;TEST_FT62F21X_SLEEP.C: 269: {
		//;TEST_FT62F21X_SLEEP.C: 270: temp_mode = ir_key_value[i*2 + 1];
		BCR 	STATUS,0 		//0170 	1003
		RLR 	60H,0 			//0171 	0560
		ADDWI 	2H 			//0172 	2702
		STR 	FSR 			//0173 	0184
		ORG		0174H
		LCALL 	2C2H 			//0174 	32C2
		STR 	51H 			//0175 	01D1

		//;TEST_FT62F21X_SLEEP.C: 271: if(temp_mode >= 0x0D && temp_mode <= 0x10)
		LDWI 	DH 			//0176 	2A0D
		SUBWR 	51H,0 			//0177 	0C51
		BTSS 	STATUS,0 		//0178 	1C03
		LJUMP 	180H 			//0179 	3980
		LDWI 	11H 			//017A 	2A11
		SUBWR 	51H,0 			//017B 	0C51
		ORG		017CH
		BTSC 	STATUS,0 		//017C 	1403
		LJUMP 	180H 			//017D 	3980

		//;TEST_FT62F21X_SLEEP.C: 272: {
		//;TEST_FT62F21X_SLEEP.C: 273: set_time_mode_backup = ft_user_pwm_mode;
		LDR 	4CH,0 			//017E 	084C
		STR 	79H 			//017F 	01F9

		//;TEST_FT62F21X_SLEEP.C: 274: }
		//;TEST_FT62F21X_SLEEP.C: 275: if(temp_mode < 0x0B)
		LDWI 	BH 			//0180 	2A0B
		SUBWR 	51H,0 			//0181 	0C51
		BTSC 	STATUS,0 		//0182 	1403
		LJUMP 	18CH 			//0183 	398C
		ORG		0184H

		//;TEST_FT62F21X_SLEEP.C: 276: {
		//;TEST_FT62F21X_SLEEP.C: 277: if(ft_user_pwm_mode != temp_mode)
		LDR 	4CH,0 			//0184 	084C
		XORWR 	51H,0 			//0185 	0451
		BTSC 	STATUS,2 		//0186 	1503
		LJUMP 	18FH 			//0187 	398F

		//;TEST_FT62F21X_SLEEP.C: 278: {
		//;TEST_FT62F21X_SLEEP.C: 279: ft_user_pwm_mode = temp_mode;
		LDR 	51H,0 			//0188 	0851
		STR 	4CH 			//0189 	01CC

		//;TEST_FT62F21X_SLEEP.C: 280: PWM_MODE_REFRESH();
		LCALL 	1E4H 			//018A 	31E4
		LJUMP 	18FH 			//018B 	398F
		ORG		018CH

		//;TEST_FT62F21X_SLEEP.C: 283: else
		//;TEST_FT62F21X_SLEEP.C: 284: {
		//;TEST_FT62F21X_SLEEP.C: 285: ft_user_set_mode = temp_mode;
		LDR 	51H,0 			//018C 	0851
		STR 	4DH 			//018D 	01CD

		//;TEST_FT62F21X_SLEEP.C: 286: SET_MODE_REFRESH();
		LCALL 	DH 			//018E 	300D
		LDWI 	13H 			//018F 	2A13
		INCR	60H,1 			//0190 	09E0
		SUBWR 	60H,0 			//0191 	0C60
		BTSC 	STATUS,0 		//0192 	1403
		LJUMP 	F2H 			//0193 	38F2
		ORG		0194H
		LJUMP 	168H 			//0194 	3968

		//;TEST_FT62F21X_SLEEP.C: 64: if(TMR2IE && TMR2IF)
		BSR 	STATUS,5 		//0195 	1A83
		BTSS 	CH,1 			//0196 	1C8C
		LJUMP 	19EH 			//0197 	399E
		BCR 	STATUS,5 		//0198 	1283
		BTSS 	CH,1 			//0199 	1C8C
		LJUMP 	19EH 			//019A 	399E

		//;TEST_FT62F21X_SLEEP.C: 65: {
		//;TEST_FT62F21X_SLEEP.C: 66: TMR2IF = 0;
		BCR 	CH,1 			//019B 	108C
		ORG		019CH

		//;TEST_FT62F21X_SLEEP.C: 67: time_15ms_cnt++;
		INCR	52H,1 			//019C 	09D2

		//;TEST_FT62F21X_SLEEP.C: 68: auto_power_off_timer_L++;
		INCR	4BH,1 			//019D 	09CB

		//;TEST_FT62F21X_SLEEP.C: 70: }
		//;TEST_FT62F21X_SLEEP.C: 74: if(T0IE && T0IF)
		BTSC 	INTCON,5 		//019E 	168B
		BTSS 	INTCON,2 		//019F 	1D0B
		LJUMP 	1ACH 			//01A0 	39AC

		//;TEST_FT62F21X_SLEEP.C: 75: {
		//;TEST_FT62F21X_SLEEP.C: 76: TMR0 = 140;
		LDWI 	8CH 			//01A1 	2A8C
		BCR 	STATUS,5 		//01A2 	1283
		STR 	1H 			//01A3 	0181
		ORG		01A4H
		LDWI 	33H 			//01A4 	2A33

		//;TEST_FT62F21X_SLEEP.C: 78: T0IF = 0;
		BCR 	INTCON,2 		//01A5 	110B

		//;TEST_FT62F21X_SLEEP.C: 79: IRbitTime++;
		INCR	49H,1 			//01A6 	09C9

		//;TEST_FT62F21X_SLEEP.C: 80: if(IRbitTime > 50)
		SUBWR 	49H,0 			//01A7 	0C49
		BTSS 	STATUS,0 		//01A8 	1C03
		LJUMP 	1ACH 			//01A9 	39AC

		//;TEST_FT62F21X_SLEEP.C: 81: {
		//;TEST_FT62F21X_SLEEP.C: 82: T0IE = 0;
		BCR 	INTCON,5 		//01AA 	128B

		//;TEST_FT62F21X_SLEEP.C: 83: IRbitTime = 0;
		CLRR 	49H 			//01AB 	0149
		ORG		01ACH

		//;TEST_FT62F21X_SLEEP.C: 84: }
		//;TEST_FT62F21X_SLEEP.C: 85: }
		//;TEST_FT62F21X_SLEEP.C: 88: if(PAIE && PAIF)
		BTSC 	INTCON,3 		//01AC 	158B
		BTSS 	INTCON,0 		//01AD 	1C0B
		LJUMP 	1DBH 			//01AE 	39DB

		//;TEST_FT62F21X_SLEEP.C: 89: {
		//;TEST_FT62F21X_SLEEP.C: 90: ReadAPin = PORTA;
		BCR 	STATUS,5 		//01AF 	1283
		LDR 	5H,0 			//01B0 	0805

		//;TEST_FT62F21X_SLEEP.C: 91: PAIF = 0;
		BCR 	INTCON,0 		//01B1 	100B

		//;TEST_FT62F21X_SLEEP.C: 92: if(RA3 == 0)
		BTSC 	5H,3 			//01B2 	1585
		LJUMP 	1DBH 			//01B3 	39DB
		ORG		01B4H
		LDWI 	16H 			//01B4 	2A16

		//;TEST_FT62F21X_SLEEP.C: 93: {
		//;TEST_FT62F21X_SLEEP.C: 94: T0IE = 1;
		BSR 	INTCON,5 		//01B5 	1A8B

		//;TEST_FT62F21X_SLEEP.C: 95: if(IRbitTime > 21)
		SUBWR 	49H,0 			//01B6 	0C49
		BTSS 	STATUS,0 		//01B7 	1C03
		LJUMP 	1C0H 			//01B8 	39C0

		//;TEST_FT62F21X_SLEEP.C: 96: {
		//;TEST_FT62F21X_SLEEP.C: 97: IRDataTimer[0] = 0;
		CLRR 	40H 			//01B9 	0140

		//;TEST_FT62F21X_SLEEP.C: 98: IRDataTimer[1] = 0;
		CLRR 	41H 			//01BA 	0141

		//;TEST_FT62F21X_SLEEP.C: 99: IRDataTimer[2] = 0;
		CLRR 	42H 			//01BB 	0142
		ORG		01BCH

		//;TEST_FT62F21X_SLEEP.C: 100: IRDataTimer[3] = 0;
		CLRR 	43H 			//01BC 	0143

		//;TEST_FT62F21X_SLEEP.C: 101: IRbitNum = 0;
		CLRR 	48H 			//01BD 	0148

		//;TEST_FT62F21X_SLEEP.C: 102: bitdata = 0x00;
		CLRR 	61H 			//01BE 	0161

		//;TEST_FT62F21X_SLEEP.C: 103: }
		LJUMP 	1CAH 			//01BF 	39CA

		//;TEST_FT62F21X_SLEEP.C: 104: else if(IRbitTime > 3)
		LDWI 	4H 			//01C0 	2A04
		SUBWR 	49H,0 			//01C1 	0C49
		BTSS 	STATUS,0 		//01C2 	1C03
		LJUMP 	1CAH 			//01C3 	39CA
		ORG		01C4H

		//;TEST_FT62F21X_SLEEP.C: 105: {
		//;TEST_FT62F21X_SLEEP.C: 106: IRDataTimer[IRbitNum-1] |= bitdata;
		LDR 	48H,0 			//01C4 	0848
		ADDWI 	3FH 			//01C5 	273F
		STR 	FSR 			//01C6 	0184
		LDR 	61H,0 			//01C7 	0861
		BCR 	STATUS,7 		//01C8 	1383
		IORWR 	INDF,1 		//01C9 	0380

		//;TEST_FT62F21X_SLEEP.C: 107: }
		//;TEST_FT62F21X_SLEEP.C: 108: IRbitTime = 0;
		CLRR 	49H 			//01CA 	0149

		//;TEST_FT62F21X_SLEEP.C: 109: bitdata<<=1;
		BCR 	STATUS,0 		//01CB 	1003
		ORG		01CCH
		RLR 	61H,1 			//01CC 	05E1

		//;TEST_FT62F21X_SLEEP.C: 110: if(bitdata == 0)
		LDR 	61H,1 			//01CD 	08E1
		BTSS 	STATUS,2 		//01CE 	1D03
		LJUMP 	1D3H 			//01CF 	39D3

		//;TEST_FT62F21X_SLEEP.C: 111: {
		//;TEST_FT62F21X_SLEEP.C: 112: bitdata = 0x01;
		CLRR 	61H 			//01D0 	0161
		INCR	61H,1 			//01D1 	09E1

		//;TEST_FT62F21X_SLEEP.C: 113: IRbitNum++;
		INCR	48H,1 			//01D2 	09C8

		//;TEST_FT62F21X_SLEEP.C: 114: }
		//;TEST_FT62F21X_SLEEP.C: 115: if(IRbitNum > 4)
		LDWI 	5H 			//01D3 	2A05
		ORG		01D4H
		SUBWR 	48H,0 			//01D4 	0C48
		BTSS 	STATUS,0 		//01D5 	1C03
		LJUMP 	1DBH 			//01D6 	39DB

		//;TEST_FT62F21X_SLEEP.C: 116: {
		//;TEST_FT62F21X_SLEEP.C: 117: IRbitNum = 0;
		CLRR 	48H 			//01D7 	0148

		//;TEST_FT62F21X_SLEEP.C: 118: T0IE = 0;
		BCR 	INTCON,5 		//01D8 	128B

		//;TEST_FT62F21X_SLEEP.C: 119: ReceiveFinish = 1;
		CLRR 	4AH 			//01D9 	014A
		INCR	4AH,1 			//01DA 	09CA
		LDR 	72H,0 			//01DB 	0872
		ORG		01DCH
		STR 	PCLATH 			//01DC 	018A
		LDR 	71H,0 			//01DD 	0871
		STR 	FSR 			//01DE 	0184
		SWAPR 	70H,0 			//01DF 	0770
		STR 	STATUS 			//01E0 	0183
		SWAPR 	7EH,1 			//01E1 	07FE
		SWAPR 	7EH,0 			//01E2 	077E
		RETI		 			//01E3 	0009
		ORG		01E4H

		//;FT_62F21X_pwm.c: 411: reset_led_status();
		LCALL 	3FCH 			//01E4 	33FC

		//;FT_62F21X_pwm.c: 413: if(ft_user_pwm_mode != 0)
		LDR 	4CH,0 			//01E5 	084C
		BTSC 	STATUS,2 		//01E6 	1503
		LJUMP 	1EDH 			//01E7 	39ED

		//;FT_62F21X_pwm.c: 414: {
		//;FT_62F21X_pwm.c: 415: P1CDTL=jump_led_rate;
		LDR 	78H,0 			//01E8 	0878
		STR 	10H 			//01E9 	0190

		//;FT_62F21X_pwm.c: 416: P1DDTL=jump_led_rate;
		LDR 	78H,0 			//01EA 	0878
		STR 	8H 			//01EB 	0188
		ORG		01ECH

		//;FT_62F21X_pwm.c: 417: }
		LJUMP 	1EFH 			//01EC 	39EF

		//;FT_62F21X_pwm.c: 418: else
		//;FT_62F21X_pwm.c: 419: {
		//;FT_62F21X_pwm.c: 420: P1CDTL=0;
		CLRR 	10H 			//01ED 	0110

		//;FT_62F21X_pwm.c: 421: P1DDTL=0;
		CLRR 	8H 			//01EE 	0108

		//;FT_62F21X_pwm.c: 422: }
		//;FT_62F21X_pwm.c: 424: if(power_off_flag == 1)
		DECRSZ 	4FH,0 		//01EF 	0E4F
		LJUMP 	21BH 			//01F0 	3A1B
		RET		 					//01F1 	0004

		//;FT_62F21X_pwm.c: 432: pwm_rate_value = 0;
		CLRR 	50H 			//01F2 	0150

		//;FT_62F21X_pwm.c: 433: pwm_colour_value = 0;
		CLRR 	7AH 			//01F3 	017A
		ORG		01F4H

		//;FT_62F21X_pwm.c: 434: PWM1_RED();
		LJUMP 	3B2H 			//01F4 	3BB2

		//;FT_62F21X_pwm.c: 447: P1OE=0B00100000;
		LDWI 	20H 			//01F5 	2A20
		BSR 	STATUS,5 		//01F6 	1A83
		STR 	10H 			//01F7 	0190

		//;FT_62F21X_pwm.c: 448: P1BR1=0B00000000;
		BCR 	STATUS,5 		//01F8 	1283
		CLRR 	19H 			//01F9 	0119

		//;FT_62F21X_pwm.c: 450: break;
		RET		 					//01FA 	0004

		//;FT_62F21X_pwm.c: 453: P1OE=0B10000000;
		LDWI 	80H 			//01FB 	2A80
		ORG		01FCH
		LJUMP 	1F6H 			//01FC 	39F6

		//;FT_62F21X_pwm.c: 458: P1OE=0B00000000;
		BSR 	STATUS,5 		//01FD 	1A83
		CLRR 	10H 			//01FE 	0110

		//;FT_62F21X_pwm.c: 459: P1BR1=0B00000100;
		LDWI 	4H 			//01FF 	2A04
		BCR 	STATUS,5 		//0200 	1283
		STR 	19H 			//0201 	0199

		//;FT_62F21X_pwm.c: 460: break;
		RET		 					//0202 	0004

		//;FT_62F21X_pwm.c: 463: pwm_colour_value = 0;
		CLRR 	7AH 			//0203 	017A
		ORG		0204H

		//;FT_62F21X_pwm.c: 436: break;
		//;FT_62F21X_pwm.c: 440: P1OE=0B00000000;
		BSR 	STATUS,5 		//0204 	1A83
		CLRR 	10H 			//0205 	0110

		//;FT_62F21X_pwm.c: 441: P1BR1=0B00001000;
		LDWI 	8H 			//0206 	2A08
		BCR 	STATUS,5 		//0207 	1283
		STR 	19H 			//0208 	0199

		//;FT_62F21X_pwm.c: 443: break;
		RET		 					//0209 	0004

		//;FT_62F21X_pwm.c: 465: P1OE=0B00000000;
		//;FT_62F21X_pwm.c: 472: P1OE=0B00100000;
		LDWI 	20H 			//020A 	2A20

		//;FT_62F21X_pwm.c: 473: P1BR1=0B00001000;
		//;FT_62F21X_pwm.c: 475: break;
		LJUMP 	2B6H 			//020B 	3AB6
		ORG		020CH

		//;FT_62F21X_pwm.c: 479: P1OE=0B10000000;
		LDWI 	80H 			//020C 	2A80

		//;FT_62F21X_pwm.c: 480: P1BR1=0B00001000;
		//;FT_62F21X_pwm.c: 483: break;
		LJUMP 	2B6H 			//020D 	3AB6

		//;FT_62F21X_pwm.c: 486: P1OE=0B00000000;
		BSR 	STATUS,5 		//020E 	1A83
		CLRR 	10H 			//020F 	0110

		//;FT_62F21X_pwm.c: 487: P1BR1=0B00001100;
		LDWI 	CH 			//0210 	2A0C
		BCR 	STATUS,5 		//0211 	1283
		STR 	19H 			//0212 	0199

		//;FT_62F21X_pwm.c: 488: break;
		RET		 					//0213 	0004
		ORG		0214H

		//;FT_62F21X_pwm.c: 491: P1OE=0B10100000;
		LDWI 	A0H 			//0214 	2AA0

		//;FT_62F21X_pwm.c: 492: P1BR1=0B00001000;
		//;FT_62F21X_pwm.c: 493: break;
		LJUMP 	2B6H 			//0215 	3AB6
		LDWI 	20H 			//0216 	2A20

		//;FT_62F21X_pwm.c: 496: pwm_colour_value = 0;
		CLRR 	7AH 			//0217 	017A

		//;FT_62F21X_pwm.c: 497: P1OE=0B00100000;
		BSR 	STATUS,5 		//0218 	1A83
		STR 	10H 			//0219 	0190
		LJUMP 	206H 			//021A 	3A06
		LDR 	4CH,0 			//021B 	084C
		ORG		021CH
		STR 	FSR 			//021C 	0184
		LDWI 	BH 			//021D 	2A0B
		SUBWR 	FSR,0 			//021E 	0C04
		BTSC 	STATUS,0 		//021F 	1403
		RET		 					//0220 	0004
		LDWI 	3H 			//0221 	2A03
		STR 	PCLATH 			//0222 	018A
		LDWI 	83H 			//0223 	2A83
		ORG		0224H
		ADDWR 	FSR,0 			//0224 	0B04
		STR 	PCL 			//0225 	0182
		RET		 					//0226 	0004

		//;FT_62F21X_pwm.c: 196: unsigned char pwm_value;
		//;FT_62F21X_pwm.c: 198: if(pwm_rate_value >= 200)
		LDWI 	C8H 			//0227 	2AC8
		SUBWR 	50H,0 			//0228 	0C50
		BTSS 	STATUS,0 		//0229 	1C03
		LJUMP 	240H 			//022A 	3A40
		LDWI 	3H 			//022B 	2A03
		ORG		022CH

		//;FT_62F21X_pwm.c: 199: {
		//;FT_62F21X_pwm.c: 200: pwm_rate_value = 0;
		CLRR 	50H 			//022C 	0150

		//;FT_62F21X_pwm.c: 201: pwm_colour_value++;
		INCR	7AH,1 			//022D 	09FA

		//;FT_62F21X_pwm.c: 202: pwm_colour_value = pwm_colour_value%4;
		ANDWR 	7AH,1 			//022E 	02FA

		//;FT_62F21X_pwm.c: 203: switch(pwm_colour_value)
		LJUMP 	238H 			//022F 	3A38

		//;FT_62F21X_pwm.c: 206: PWM1_RED();
		LCALL 	3B2H 			//0230 	33B2

		//;FT_62F21X_pwm.c: 207: break;
		LJUMP 	240H 			//0231 	3A40

		//;FT_62F21X_pwm.c: 210: PWM1_GREEN();
		LCALL 	3A9H 			//0232 	33A9

		//;FT_62F21X_pwm.c: 211: break;
		LJUMP 	240H 			//0233 	3A40
		ORG		0234H

		//;FT_62F21X_pwm.c: 214: PWM1_BLUE();
		LCALL 	3A0H 			//0234 	33A0

		//;FT_62F21X_pwm.c: 215: break;
		LJUMP 	240H 			//0235 	3A40

		//;FT_62F21X_pwm.c: 218: PWM1_WHITE();
		LCALL 	397H 			//0236 	3397

		//;FT_62F21X_pwm.c: 219: break;
		LJUMP 	240H 			//0237 	3A40
		LCALL 	259H 			//0238 	3259
		BTSC 	STATUS,0 		//0239 	1403
		LJUMP 	240H 			//023A 	3A40
		LDWI 	3H 			//023B 	2A03
		ORG		023CH
		STR 	PCLATH 			//023C 	018A
		LDWI 	F0H 			//023D 	2AF0
		ADDWR 	FSR,0 			//023E 	0B04
		STR 	PCL 			//023F 	0182

		//;FT_62F21X_pwm.c: 225: }
		//;FT_62F21X_pwm.c: 226: if(pwm_rate_value <=100)
		LDWI 	65H 			//0240 	2A65
		SUBWR 	50H,0 			//0241 	0C50

		//;FT_62F21X_pwm.c: 227: {
		//;FT_62F21X_pwm.c: 228: pwm_value = pwm_rate_value;
		LDR 	50H,0 			//0242 	0850
		BTSC 	STATUS,0 		//0243 	1403
		ORG		0244H

		//;FT_62F21X_pwm.c: 230: else
		//;FT_62F21X_pwm.c: 231: {
		//;FT_62F21X_pwm.c: 232: pwm_value = 200 - pwm_rate_value;
		//;FT_62F21X_pwm.c: 229: }
		SUBWI 	C8H 			//0244 	28C8
		STR 	73H 			//0245 	01F3
		LJUMP 	24DH 			//0246 	3A4D

		//;FT_62F21X_pwm.c: 238: P1CDTL = pwm_value;
		LDR 	73H,0 			//0247 	0873
		STR 	10H 			//0248 	0190

		//;FT_62F21X_pwm.c: 239: break;
		RET		 					//0249 	0004

		//;FT_62F21X_pwm.c: 242: P1DDTL = pwm_value;
		LDR 	73H,0 			//024A 	0873
		STR 	8H 			//024B 	0188
		ORG		024CH

		//;FT_62F21X_pwm.c: 243: break;
		RET		 					//024C 	0004
		LDR 	7AH,0 			//024D 	087A
		STR 	FSR 			//024E 	0184
		LDWI 	4H 			//024F 	2A04
		SUBWR 	FSR,0 			//0250 	0C04
		BTSC 	STATUS,0 		//0251 	1403
		RET		 					//0252 	0004
		LDWI 	3H 			//0253 	2A03
		ORG		0254H
		STR 	PCLATH 			//0254 	018A
		LDWI 	F4H 			//0255 	2AF4
		ADDWR 	FSR,0 			//0256 	0B04
		STR 	PCL 			//0257 	0182
		RET		 					//0258 	0004
		LDR 	7AH,0 			//0259 	087A
		STR 	FSR 			//025A 	0184
		LDWI 	4H 			//025B 	2A04
		ORG		025CH
		SUBWR 	FSR,0 			//025C 	0C04
		RET		 					//025D 	0004
		CLRR 	73H 			//025E 	0173
		CLRR 	74H 			//025F 	0174
		CLRR 	75H 			//0260 	0175
		CLRR 	76H 			//0261 	0176
		BTSS 	54H,0 			//0262 	1C54
		LJUMP 	278H 			//0263 	3A78
		ORG		0264H
		LDR 	58H,0 			//0264 	0858
		ADDWR 	73H,1 			//0265 	0BF3
		LDR 	59H,0 			//0266 	0859
		BCR 	STATUS,2 		//0267 	1103
		BTSC 	STATUS,0 		//0268 	1403
		ADDWI 	1H 			//0269 	2701
		BTSS 	STATUS,2 		//026A 	1D03
		ADDWR 	74H,1 			//026B 	0BF4
		ORG		026CH
		LDR 	5AH,0 			//026C 	085A
		BCR 	STATUS,2 		//026D 	1103
		BTSC 	STATUS,0 		//026E 	1403
		ADDWI 	1H 			//026F 	2701
		BTSS 	STATUS,2 		//0270 	1D03
		ADDWR 	75H,1 			//0271 	0BF5
		LDR 	5BH,0 			//0272 	085B
		BCR 	STATUS,2 		//0273 	1103
		ORG		0274H
		BTSC 	STATUS,0 		//0274 	1403
		ADDWI 	1H 			//0275 	2701
		BTSS 	STATUS,2 		//0276 	1D03
		ADDWR 	76H,1 			//0277 	0BF6
		BCR 	STATUS,0 		//0278 	1003
		RLR 	58H,1 			//0279 	05D8
		RLR 	59H,1 			//027A 	05D9
		RLR 	5AH,1 			//027B 	05DA
		ORG		027CH
		RLR 	5BH,1 			//027C 	05DB
		BCR 	STATUS,0 		//027D 	1003
		RRR	57H,1 			//027E 	06D7
		RRR	56H,1 			//027F 	06D6
		RRR	55H,1 			//0280 	06D5
		RRR	54H,1 			//0281 	06D4
		LDR 	57H,0 			//0282 	0857
		IORWR 	56H,0 			//0283 	0356
		ORG		0284H
		IORWR 	55H,0 			//0284 	0355
		IORWR 	54H,0 			//0285 	0354
		BTSS 	STATUS,2 		//0286 	1D03
		LJUMP 	262H 			//0287 	3A62
		LDR 	76H,0 			//0288 	0876
		STR 	57H 			//0289 	01D7
		LDR 	75H,0 			//028A 	0875
		STR 	56H 			//028B 	01D6
		ORG		028CH
		LDR 	74H,0 			//028C 	0874
		STR 	55H 			//028D 	01D5
		LDR 	73H,0 			//028E 	0873
		STR 	54H 			//028F 	01D4
		RET		 					//0290 	0004
		LDWI 	6H 			//0291 	2A06

		//;FT_62F21X_pwm.c: 313: pwm_colour_value++;
		INCR	7AH,1 			//0292 	09FA

		//;FT_62F21X_pwm.c: 314: pwm_colour_value = pwm_colour_value%6;
		STR 	73H 			//0293 	01F3
		ORG		0294H
		LDR 	7AH,0 			//0294 	087A
		LCALL 	312H 			//0295 	3312
		STR 	7AH 			//0296 	01FA

		//;FT_62F21X_pwm.c: 316: switch(pwm_colour_value)
		STR 	FSR 			//0297 	0184
		LDWI 	6H 			//0298 	2A06
		SUBWR 	FSR,0 			//0299 	0C04
		BTSC 	STATUS,0 		//029A 	1403
		RET		 					//029B 	0004
		ORG		029CH
		LDWI 	3H 			//029C 	2A03
		STR 	PCLATH 			//029D 	018A
		LDWI 	E2H 			//029E 	2AE2
		ADDWR 	FSR,0 			//029F 	0B04
		STR 	PCL 			//02A0 	0182
		RET		 					//02A1 	0004

		//;FT_62F21X_pwm.c: 319: P1OE=0B00100000;
		LDWI 	20H 			//02A2 	2A20

		//;FT_62F21X_pwm.c: 320: P1BR1=0B00001000;
		//;FT_62F21X_pwm.c: 321: break;
		LJUMP 	2B6H 			//02A3 	3AB6
		ORG		02A4H

		//;FT_62F21X_pwm.c: 324: P1OE=0B10000000;
		LDWI 	80H 			//02A4 	2A80

		//;FT_62F21X_pwm.c: 325: P1BR1=0B00001000;
		//;FT_62F21X_pwm.c: 327: break;
		LJUMP 	2B6H 			//02A5 	3AB6

		//;FT_62F21X_pwm.c: 330: P1OE=0B00000000;
		BSR 	STATUS,5 		//02A6 	1A83
		CLRR 	10H 			//02A7 	0110

		//;FT_62F21X_pwm.c: 331: P1BR1=0B00001100;
		LDWI 	CH 			//02A8 	2A0C
		BCR 	STATUS,5 		//02A9 	1283
		STR 	19H 			//02AA 	0199

		//;FT_62F21X_pwm.c: 333: break;
		RET		 					//02AB 	0004
		ORG		02ACH

		//;FT_62F21X_pwm.c: 336: P1OE=0B10100000;
		LDWI 	A0H 			//02AC 	2AA0
		BSR 	STATUS,5 		//02AD 	1A83
		STR 	10H 			//02AE 	0190

		//;FT_62F21X_pwm.c: 337: P1BR1=0B00000000;
		BCR 	STATUS,5 		//02AF 	1283
		CLRR 	19H 			//02B0 	0119

		//;FT_62F21X_pwm.c: 338: break;
		RET		 					//02B1 	0004

		//;FT_62F21X_pwm.c: 341: P1OE=0B00100000;
		LDWI 	20H 			//02B2 	2A20

		//;FT_62F21X_pwm.c: 342: P1BR1=0B00000100;
		//;FT_62F21X_pwm.c: 343: break;
		LJUMP 	2BCH 			//02B3 	3ABC
		ORG		02B4H

		//;FT_62F21X_pwm.c: 346: P1OE=0B10000000;
		LDWI 	80H 			//02B4 	2A80

		//;FT_62F21X_pwm.c: 347: P1BR1=0B00000100;
		//;FT_62F21X_pwm.c: 348: break;
		LJUMP 	2BCH 			//02B5 	3ABC
		BSR 	STATUS,5 		//02B6 	1A83
		STR 	10H 			//02B7 	0190
		LDWI 	8H 			//02B8 	2A08
		BCR 	STATUS,5 		//02B9 	1283
		STR 	19H 			//02BA 	0199
		RET		 					//02BB 	0004
		ORG		02BCH
		BSR 	STATUS,5 		//02BC 	1A83
		STR 	10H 			//02BD 	0190
		LDWI 	4H 			//02BE 	2A04
		BCR 	STATUS,5 		//02BF 	1283
		STR 	19H 			//02C0 	0199
		RET		 					//02C1 	0004
		LDWI 	2H 			//02C2 	2A02
		STR 	PCLATH 			//02C3 	018A
		ORG		02C4H
		LDR 	FSR,0 			//02C4 	0804
		INCR	FSR,1 			//02C5 	0984
		ADDWR 	PCL,1 			//02C6 	0B82
		RETW 	0H 			//02C7 	2100
		RETW 	FBH 			//02C8 	21FB
		RETW 	0H 			//02C9 	2100
		RETW 	B2H 			//02CA 	21B2
		RETW 	5H 			//02CB 	2105
		ORG		02CCH
		RETW 	FFH 			//02CC 	21FF
		RETW 	1H 			//02CD 	2101
		RETW 	F5H 			//02CE 	21F5
		RETW 	2H 			//02CF 	2102
		RETW 	EDH 			//02D0 	21ED
		RETW 	3H 			//02D1 	2103
		RETW 	F6H 			//02D2 	21F6
		RETW 	4H 			//02D3 	2104
		ORG		02D4H
		RETW 	EAH 			//02D4 	21EA
		RETW 	6H 			//02D5 	2106
		RETW 	BFH 			//02D6 	21BF
		RETW 	7H 			//02D7 	2107
		RETW 	E1H 			//02D8 	21E1
		RETW 	8H 			//02D9 	2108
		RETW 	E4H 			//02DA 	21E4
		RETW 	9H 			//02DB 	2109
		ORG		02DCH
		RETW 	E2H 			//02DC 	21E2
		RETW 	AH 			//02DD 	210A
		RETW 	E5H 			//02DE 	21E5
		RETW 	BH 			//02DF 	210B
		RETW 	E0H 			//02E0 	21E0
		RETW 	CH 			//02E1 	210C
		RETW 	F2H 			//02E2 	21F2
		RETW 	DH 			//02E3 	210D
		ORG		02E4H
		RETW 	E8H 			//02E4 	21E8
		RETW 	EH 			//02E5 	210E
		RETW 	B3H 			//02E6 	21B3
		RETW 	FH 			//02E7 	210F
		RETW 	E6H 			//02E8 	21E6
		RETW 	10H 			//02E9 	2110
		RETW 	F1H 			//02EA 	21F1
		RETW 	11H 			//02EB 	2111
		ORG		02ECH
		RETW 	F0H 			//02EC 	21F0
		RETW 	12H 			//02ED 	2112
		LDWI 	3H 			//02EE 	2A03

		//;FT_62F21X_pwm.c: 262: pwm_colour_value++;
		INCR	7AH,1 			//02EF 	09FA

		//;FT_62F21X_pwm.c: 263: pwm_colour_value = pwm_colour_value%4;
		ANDWR 	7AH,1 			//02F0 	02FA

		//;FT_62F21X_pwm.c: 264: switch(pwm_colour_value)
		LJUMP 	306H 			//02F1 	3B06

		//;FT_62F21X_pwm.c: 268: P1OE=0B00000000;
		BSR 	STATUS,5 		//02F2 	1A83
		CLRR 	10H 			//02F3 	0110
		ORG		02F4H

		//;FT_62F21X_pwm.c: 269: P1BR1=0B00001000;
		LDWI 	8H 			//02F4 	2A08
		BCR 	STATUS,5 		//02F5 	1283
		STR 	19H 			//02F6 	0199

		//;FT_62F21X_pwm.c: 271: break;
		RET		 					//02F7 	0004

		//;FT_62F21X_pwm.c: 275: P1OE=0B00100000;
		LDWI 	20H 			//02F8 	2A20
		BSR 	STATUS,5 		//02F9 	1A83
		STR 	10H 			//02FA 	0190

		//;FT_62F21X_pwm.c: 276: P1BR1=0B00000000;
		BCR 	STATUS,5 		//02FB 	1283
		ORG		02FCH
		CLRR 	19H 			//02FC 	0119

		//;FT_62F21X_pwm.c: 278: break;
		RET		 					//02FD 	0004

		//;FT_62F21X_pwm.c: 281: P1OE=0B10000000;
		LDWI 	80H 			//02FE 	2A80
		LJUMP 	2F9H 			//02FF 	3AF9

		//;FT_62F21X_pwm.c: 286: P1OE=0B00000000;
		BSR 	STATUS,5 		//0300 	1A83
		CLRR 	10H 			//0301 	0110

		//;FT_62F21X_pwm.c: 287: P1BR1=0B00000100;
		LDWI 	4H 			//0302 	2A04
		BCR 	STATUS,5 		//0303 	1283
		ORG		0304H
		STR 	19H 			//0304 	0199

		//;FT_62F21X_pwm.c: 288: break;
		RET		 					//0305 	0004
		LDR 	7AH,0 			//0306 	087A
		STR 	FSR 			//0307 	0184
		LDWI 	4H 			//0308 	2A04
		SUBWR 	FSR,0 			//0309 	0C04
		BTSC 	STATUS,0 		//030A 	1403
		RET		 					//030B 	0004
		ORG		030CH
		LDWI 	3H 			//030C 	2A03
		STR 	PCLATH 			//030D 	018A
		LDWI 	F8H 			//030E 	2AF8
		ADDWR 	FSR,0 			//030F 	0B04
		STR 	PCL 			//0310 	0182
		RET		 					//0311 	0004
		STR 	75H 			//0312 	01F5
		LDWI 	8H 			//0313 	2A08
		ORG		0314H
		STR 	76H 			//0314 	01F6
		CLRR 	77H 			//0315 	0177
		LDR 	75H,0 			//0316 	0875
		STR 	74H 			//0317 	01F4
		LDWI 	7H 			//0318 	2A07
		BCR 	STATUS,0 		//0319 	1003
		RRR	74H,1 			//031A 	06F4
		ADDWI 	FFH 			//031B 	27FF
		ORG		031CH
		BCR 	STATUS,0 		//031C 	1003
		BTSS 	STATUS,2 		//031D 	1D03
		LJUMP 	31AH 			//031E 	3B1A
		RLR 	77H,0 			//031F 	0577
		IORWR 	74H,0 			//0320 	0374
		STR 	77H 			//0321 	01F7
		BCR 	STATUS,0 		//0322 	1003
		RLR 	75H,1 			//0323 	05F5
		ORG		0324H
		LDR 	73H,0 			//0324 	0873
		SUBWR 	77H,0 			//0325 	0C77
		BTSS 	STATUS,0 		//0326 	1C03
		LJUMP 	32AH 			//0327 	3B2A
		LDR 	73H,0 			//0328 	0873
		SUBWR 	77H,1 			//0329 	0CF7
		DECRSZ 	76H,1 		//032A 	0EF6
		LJUMP 	316H 			//032B 	3B16
		ORG		032CH
		LDR 	77H,0 			//032C 	0877
		RET		 					//032D 	0004

		//;FT_62F21X_pwm.c: 34: T2CON0=0B00000001;
		LDWI 	1H 			//032E 	2A01
		BCR 	STATUS,5 		//032F 	1283
		STR 	12H 			//0330 	0192

		//;FT_62F21X_pwm.c: 40: T2CON1=0B00000000;
		BSR 	STATUS,5 		//0331 	1A83
		CLRR 	1EH 			//0332 	011E

		//;FT_62F21X_pwm.c: 45: TMR2H=0;
		BCR 	STATUS,5 		//0333 	1283
		ORG		0334H
		CLRR 	13H 			//0334 	0113

		//;FT_62F21X_pwm.c: 46: TMR2L=100;
		LDWI 	64H 			//0335 	2A64
		STR 	11H 			//0336 	0191

		//;FT_62F21X_pwm.c: 48: PR2H=0;
		BSR 	STATUS,5 		//0337 	1A83
		CLRR 	12H 			//0338 	0112

		//;FT_62F21X_pwm.c: 49: PR2L=100;
		STR 	11H 			//0339 	0191

		//;FT_62F21X_pwm.c: 56: P1POL=0B00000000;
		CLRR 	19H 			//033A 	0119

		//;FT_62F21X_pwm.c: 63: P1CON=0B00000000;
		BCR 	STATUS,5 		//033B 	1283
		ORG		033CH
		CLRR 	16H 			//033C 	0116

		//;FT_62F21X_pwm.c: 70: P1AUX=0B00000000;
		CLRR 	1EH 			//033D 	011E

		//;FT_62F21X_pwm.c: 78: PWM1_RED();
		LCALL 	3B2H 			//033E 	33B2

		//;FT_62F21X_pwm.c: 79: pwm_colour_value = 0;
		CLRR 	7AH 			//033F 	017A

		//;FT_62F21X_pwm.c: 81: TMR2IF=0;
		BCR 	CH,1 			//0340 	108C

		//;FT_62F21X_pwm.c: 82: TMR2IE=1;
		BSR 	STATUS,5 		//0341 	1A83
		BSR 	CH,1 			//0342 	188C

		//;FT_62F21X_pwm.c: 83: TMR2ON=1;
		BCR 	STATUS,5 		//0343 	1283
		ORG		0344H
		BSR 	12H,2 			//0344 	1912

		//;FT_62F21X_pwm.c: 84: PEIE=1;
		BSR 	INTCON,6 		//0345 	1B0B

		//;FT_62F21X_pwm.c: 85: GIE=1;
		BSR 	INTCON,7 		//0346 	1B8B
		RET		 					//0347 	0004
		LDWI 	40H 			//0348 	2A40
		CLRR 	7AH 			//0349 	017A
		BCR 	STATUS,7 		//034A 	1383
		STR 	FSR 			//034B 	0184
		ORG		034CH
		LDWI 	54H 			//034C 	2A54
		LCALL 	3C4H 			//034D 	33C4
		LDWI 	1H 			//034E 	2A01
		STR 	61H 			//034F 	01E1
		LDWI 	FFH 			//0350 	2AFF
		STR 	62H 			//0351 	01E2
		LDWI 	64H 			//0352 	2A64
		STR 	78H 			//0353 	01F8
		ORG		0354H
		LDWI 	FFH 			//0354 	2AFF
		STR 	79H 			//0355 	01F9
		CLRR 	STATUS 			//0356 	0103
		LJUMP 	EEH 			//0357 	38EE
		STR 	75H 			//0358 	01F5

		//;FT_62F21X_pwm.c: 379: unsigned char a,b;
		//;FT_62F21X_pwm.c: 380: for(a=0;a<Time;a++)
		CLRR 	76H 			//0359 	0176
		LDR 	75H,0 			//035A 	0875
		SUBWR 	76H,0 			//035B 	0C76
		ORG		035CH
		BTSC 	STATUS,0 		//035C 	1403
		RET		 					//035D 	0004

		//;FT_62F21X_pwm.c: 381: {
		//;FT_62F21X_pwm.c: 382: for(b=0;b<5;b++)
		CLRR 	77H 			//035E 	0177

		//;FT_62F21X_pwm.c: 383: {
		//;FT_62F21X_pwm.c: 384: DelayUs(98);
		LDWI 	62H 			//035F 	2A62
		LCALL 	38EH 			//0360 	338E
		LDWI 	5H 			//0361 	2A05
		INCR	77H,1 			//0362 	09F7
		SUBWR 	77H,0 			//0363 	0C77
		ORG		0364H
		BTSS 	STATUS,0 		//0364 	1C03
		LJUMP 	35FH 			//0365 	3B5F
		INCR	76H,1 			//0366 	09F6
		LJUMP 	35AH 			//0367 	3B5A

		//;TEST_FT62F21X_SLEEP.C: 134: OSCCON = 0X00|0X70|0X00;
		LDWI 	70H 			//0368 	2A70
		BSR 	STATUS,5 		//0369 	1A83
		STR 	FH 			//036A 	018F

		//;TEST_FT62F21X_SLEEP.C: 137: INTCON = 0;
		CLRR 	INTCON 			//036B 	010B
		ORG		036CH

		//;TEST_FT62F21X_SLEEP.C: 139: PORTA = 0B00000000;
		BCR 	STATUS,5 		//036C 	1283
		CLRR 	5H 			//036D 	0105

		//;TEST_FT62F21X_SLEEP.C: 140: TRISA = 0B00010000;
		LDWI 	10H 			//036E 	2A10
		BSR 	STATUS,5 		//036F 	1A83
		STR 	5H 			//0370 	0185

		//;TEST_FT62F21X_SLEEP.C: 141: WPUA = 0B00010000;
		STR 	15H 			//0371 	0195

		//;TEST_FT62F21X_SLEEP.C: 143: OPTION = 0B00001000;
		LDWI 	8H 			//0372 	2A08
		STR 	1H 			//0373 	0181
		ORG		0374H

		//;TEST_FT62F21X_SLEEP.C: 145: MSCON = 0B00000000;
		BCR 	STATUS,5 		//0374 	1283
		CLRR 	1BH 			//0375 	011B
		RET		 					//0376 	0004

		//;FT_62F21X_pwm.c: 298: ft_user_pwm_mode++;
		INCR	4CH,1 			//0377 	09CC

		//;FT_62F21X_pwm.c: 299: if(ft_user_pwm_mode == 6)
		LDR 	4CH,0 			//0378 	084C
		XORWI 	6H 			//0379 	2606
		BTSC 	STATUS,2 		//037A 	1503

		//;FT_62F21X_pwm.c: 300: {
		//;FT_62F21X_pwm.c: 301: ft_user_pwm_mode = 0;
		CLRR 	4CH 			//037B 	014C
		ORG		037CH

		//;FT_62F21X_pwm.c: 302: }
		//;FT_62F21X_pwm.c: 303: if(ft_user_pwm_mode > 6)
		LDWI 	7H 			//037C 	2A07
		SUBWR 	4CH,0 			//037D 	0C4C
		BTSS 	STATUS,0 		//037E 	1C03
		LJUMP 	382H 			//037F 	3B82

		//;FT_62F21X_pwm.c: 304: {
		//;FT_62F21X_pwm.c: 305: ft_user_pwm_mode = 1;
		CLRR 	4CH 			//0380 	014C
		INCR	4CH,1 			//0381 	09CC

		//;FT_62F21X_pwm.c: 306: }
		//;FT_62F21X_pwm.c: 307: PWM_MODE_REFRESH();
		LJUMP 	1E4H 			//0382 	39E4
		LJUMP 	1F2H 			//0383 	39F2
		ORG		0384H
		LJUMP 	204H 			//0384 	3A04
		LJUMP 	1F5H 			//0385 	39F5
		LJUMP 	1FBH 			//0386 	39FB
		LJUMP 	1FDH 			//0387 	39FD
		LJUMP 	203H 			//0388 	3A03
		LJUMP 	20AH 			//0389 	3A0A
		LJUMP 	20CH 			//038A 	3A0C
		LJUMP 	20EH 			//038B 	3A0E
		ORG		038CH
		LJUMP 	214H 			//038C 	3A14
		LJUMP 	216H 			//038D 	3A16
		STR 	73H 			//038E 	01F3

		//;FT_62F21X_pwm.c: 365: unsigned char a;
		//;FT_62F21X_pwm.c: 366: for(a=0;a<Time;a++)
		CLRR 	74H 			//038F 	0174
		LDR 	73H,0 			//0390 	0873
		SUBWR 	74H,0 			//0391 	0C74
		BTSC 	STATUS,0 		//0392 	1403
		RET		 					//0393 	0004
		ORG		0394H

		//;FT_62F21X_pwm.c: 367: {
		//;FT_62F21X_pwm.c: 368: _nop();
		NOP		 					//0394 	0000
		INCR	74H,1 			//0395 	09F4
		LJUMP 	390H 			//0396 	3B90

		//;FT_62F21X_pwm.c: 177: P1CDTL=0;
		BCR 	STATUS,5 		//0397 	1283
		CLRR 	10H 			//0398 	0110

		//;FT_62F21X_pwm.c: 178: P1DDTL=0;
		CLRR 	8H 			//0399 	0108

		//;FT_62F21X_pwm.c: 180: P1OE=0B00000000;
		BSR 	STATUS,5 		//039A 	1A83
		CLRR 	10H 			//039B 	0110
		ORG		039CH

		//;FT_62F21X_pwm.c: 188: P1BR1=0B00000100;
		LDWI 	4H 			//039C 	2A04
		BCR 	STATUS,5 		//039D 	1283
		STR 	19H 			//039E 	0199
		RET		 					//039F 	0004

		//;FT_62F21X_pwm.c: 158: P1CDTL=0;
		BCR 	STATUS,5 		//03A0 	1283
		CLRR 	10H 			//03A1 	0110

		//;FT_62F21X_pwm.c: 159: P1DDTL=0;
		CLRR 	8H 			//03A2 	0108

		//;FT_62F21X_pwm.c: 161: P1OE=0B10000000;
		LDWI 	80H 			//03A3 	2A80
		ORG		03A4H
		BSR 	STATUS,5 		//03A4 	1A83
		STR 	10H 			//03A5 	0190

		//;FT_62F21X_pwm.c: 169: P1BR1=0B00000000;
		BCR 	STATUS,5 		//03A6 	1283
		CLRR 	19H 			//03A7 	0119
		RET		 					//03A8 	0004

		//;FT_62F21X_pwm.c: 126: P1CDTL=0;
		BCR 	STATUS,5 		//03A9 	1283
		CLRR 	10H 			//03AA 	0110

		//;FT_62F21X_pwm.c: 127: P1DDTL=0;
		CLRR 	8H 			//03AB 	0108
		ORG		03ACH

		//;FT_62F21X_pwm.c: 129: P1OE=0B00100000;
		LDWI 	20H 			//03AC 	2A20
		BSR 	STATUS,5 		//03AD 	1A83
		STR 	10H 			//03AE 	0190

		//;FT_62F21X_pwm.c: 137: P1BR1=0B00000000;
		BCR 	STATUS,5 		//03AF 	1283
		CLRR 	19H 			//03B0 	0119
		RET		 					//03B1 	0004

		//;FT_62F21X_pwm.c: 93: P1CDTL=0;
		BCR 	STATUS,5 		//03B2 	1283
		CLRR 	10H 			//03B3 	0110
		ORG		03B4H

		//;FT_62F21X_pwm.c: 94: P1DDTL=0;
		CLRR 	8H 			//03B4 	0108

		//;FT_62F21X_pwm.c: 96: P1OE=0B00000000;
		BSR 	STATUS,5 		//03B5 	1A83
		CLRR 	10H 			//03B6 	0110

		//;FT_62F21X_pwm.c: 104: P1BR1=0B00001000;
		LDWI 	8H 			//03B7 	2A08
		BCR 	STATUS,5 		//03B8 	1283
		STR 	19H 			//03B9 	0199
		RET		 					//03BA 	0004

		//;FT_62F21x_IR.c: 38: TRISA3 =1;
		BSR 	STATUS,5 		//03BB 	1A83
		ORG		03BCH
		BSR 	5H,3 			//03BC 	1985

		//;FT_62F21x_IR.c: 39: ReadAPin = PORTA;
		BCR 	STATUS,5 		//03BD 	1283
		LDR 	5H,0 			//03BE 	0805

		//;FT_62F21x_IR.c: 40: PAIF =0;
		BCR 	INTCON,0 		//03BF 	100B

		//;FT_62F21x_IR.c: 41: IOCA3 =1;
		BSR 	STATUS,5 		//03C0 	1A83
		BSR 	16H,3 			//03C1 	1996

		//;FT_62F21x_IR.c: 42: PAIE =1;
		BSR 	INTCON,3 		//03C2 	198B
		RET		 					//03C3 	0004
		ORG		03C4H
		CLRWDT	 			//03C4 	0001
		CLRR 	INDF 			//03C5 	0100
		INCR	FSR,1 			//03C6 	0984
		XORWR 	FSR,0 			//03C7 	0404
		BTSC 	STATUS,2 		//03C8 	1503
		RETW 	0H 			//03C9 	2100
		XORWR 	FSR,0 			//03CA 	0404
		LJUMP 	3C5H 			//03CB 	3BC5
		ORG		03CCH
		LJUMP 	14H 			//03CC 	3814
		LJUMP 	22H 			//03CD 	3822
		LJUMP 	28H 			//03CE 	3828
		LJUMP 	28H 			//03CF 	3828
		LJUMP 	28H 			//03D0 	3828
		LJUMP 	28H 			//03D1 	3828
		LJUMP 	B5H 			//03D2 	38B5
		LJUMP 	C4H 			//03D3 	38C4
		ORG		03D4H

		//;FT_62F21x_IR.c: 20: OPTION = 0B00000011;
		LDWI 	3H 			//03D4 	2A03
		BSR 	STATUS,5 		//03D5 	1A83
		STR 	1H 			//03D6 	0181

		//;FT_62F21x_IR.c: 27: TMR0 = 140;
		LDWI 	8CH 			//03D7 	2A8C
		BCR 	STATUS,5 		//03D8 	1283
		STR 	1H 			//03D9 	0181

		//;FT_62F21x_IR.c: 28: T0IF = 0;
		BCR 	INTCON,2 		//03DA 	110B
		RET		 					//03DB 	0004
		ORG		03DCH
		LJUMP 	88H 			//03DC 	3888
		LJUMP 	8AH 			//03DD 	388A
		LJUMP 	8FH 			//03DE 	388F
		LJUMP 	93H 			//03DF 	3893
		LJUMP 	95H 			//03E0 	3895
		LJUMP 	97H 			//03E1 	3897
		LJUMP 	2A2H 			//03E2 	3AA2
		LJUMP 	2A4H 			//03E3 	3AA4
		ORG		03E4H
		LJUMP 	2A6H 			//03E4 	3AA6
		LJUMP 	2ACH 			//03E5 	3AAC
		LJUMP 	2B2H 			//03E6 	3AB2
		LJUMP 	2B4H 			//03E7 	3AB4
		LJUMP 	58H 			//03E8 	3858
		LJUMP 	5AH 			//03E9 	385A
		LJUMP 	5CH 			//03EA 	385C
		LJUMP 	5EH 			//03EB 	385E
		ORG		03ECH
		LJUMP 	6DH 			//03EC 	386D
		LJUMP 	70H 			//03ED 	3870
		LJUMP 	76H 			//03EE 	3876
		LJUMP 	78H 			//03EF 	3878
		LJUMP 	230H 			//03F0 	3A30
		LJUMP 	232H 			//03F1 	3A32
		LJUMP 	234H 			//03F2 	3A34
		LJUMP 	236H 			//03F3 	3A36
		ORG		03F4H
		LJUMP 	247H 			//03F4 	3A47
		LJUMP 	24AH 			//03F5 	3A4A
		LJUMP 	247H 			//03F6 	3A47
		LJUMP 	24AH 			//03F7 	3A4A
		LJUMP 	2F2H 			//03F8 	3AF2
		LJUMP 	2F8H 			//03F9 	3AF8
		LJUMP 	2FEH 			//03FA 	3AFE
		LJUMP 	300H 			//03FB 	3B00
		ORG		03FCH

		//;TEST_FT62F21X_SLEEP.C: 151: time_15ms_cnt = 0;
		CLRR 	52H 			//03FC 	0152

		//;TEST_FT62F21X_SLEEP.C: 152: time_2s_cnt = 0;
		CLRR 	53H 			//03FD 	0153
		RET		 					//03FE 	0004
			END
